

Microchip MPLAB XC8 Assembler V2.32 build 20210201212658 
                                                                                               Mon Mar 08 22:15:21 2021

Microchip MPLAB XC8 C Compiler v2.32 (Free license) build 20210201212658 Og1 
     1                           	processor	16F877A
     2                           	pagewidth 120
     3                           	opt	flic
     4                           	psect	nvBANK1,global,class=BANK1,space=1,delta=1,noexec
     5                           	psect	cinit,global,class=CODE,merge=1,delta=2
     6                           	psect	cstackBANK1,global,class=BANK1,space=1,delta=1,noexec
     7                           	psect	cstackCOMMON,global,class=COMMON,space=1,delta=1,noexec
     8                           	psect	cstackBANK0,global,class=BANK0,space=1,delta=1,noexec
     9                           	psect	maintext,global,class=CODE,split=1,delta=2
    10                           	psect	text1,local,class=CODE,merge=1,delta=2
    11                           	psect	text2,local,class=CODE,merge=1,delta=2
    12                           	psect	text3,local,class=CODE,merge=1,delta=2
    13                           	psect	text4,local,class=CODE,merge=1,delta=2
    14                           	psect	text5,local,class=CODE,merge=1,delta=2
    15                           	psect	text6,local,class=CODE,merge=1,delta=2
    16                           	psect	text7,local,class=CODE,merge=1,delta=2,group=1
    17                           	psect	text8,local,class=CODE,merge=1,delta=2,group=1
    18                           	psect	text9,local,class=CODE,merge=1,delta=2,group=1
    19                           	psect	text10,local,class=CODE,merge=1,delta=2,group=1
    20                           	psect	text11,local,class=CODE,merge=1,delta=2,group=1
    21                           	psect	text12,local,class=CODE,merge=1,delta=2,group=1
    22                           	psect	config,global,abs,ovrld,class=CONFIG,space=4,delta=2,noexec
    23                           	dabs	1,0x7E,2
    24  0000                     
    25                           ; Version 2.20
    26                           ; Generated 12/02/2020 GMT
    27                           ; 
    28                           ; Copyright © 2020, Microchip Technology Inc. and its subsidiaries ("Microchip")
    29                           ; All rights reserved.
    30                           ; 
    31                           ; This software is developed by Microchip Technology Inc. and its subsidiaries ("Microch
      +                          ip").
    32                           ; 
    33                           ; Redistribution and use in source and binary forms, with or without modification, are
    34                           ; permitted provided that the following conditions are met:
    35                           ; 
    36                           ;     1. Redistributions of source code must retain the above copyright notice, this lis
      +                          t of
    37                           ;        conditions and the following disclaimer.
    38                           ; 
    39                           ;     2. Redistributions in binary form must reproduce the above copyright notice, this 
      +                          list
    40                           ;        of conditions and the following disclaimer in the documentation and/or other
    41                           ;        materials provided with the distribution.
    42                           ; 
    43                           ;     3. Microchip's name may not be used to endorse or promote products derived from th
      +                          is
    44                           ;        software without specific prior written permission.
    45                           ; 
    46                           ; THIS SOFTWARE IS PROVIDED BY MICROCHIP "AS IS" AND ANY EXPRESS OR IMPLIED WARRANTIES,
    47                           ; INCLUDING, BUT NOT LIMITED TO, THE IMPLIED WARRANTIES OF MERCHANTABILITY AND FITNESS F
      +                          OR
    48                           ; PURPOSE ARE DISCLAIMED.  IN NO EVENT SHALL MICROCHIP BE LIABLE FOR ANY DIRECT, INDIREC
      +                          T,
    49                           ; INCIDENTAL, SPECIAL, EXEMPLARY, OR CONSEQUENTIAL DAMAGES (INCLUDING BUT NOT LIMITED TO
    50                           ; PROCUREMENT OF SUBSTITUTE GOODS OR SERVICES; LOSS OF USE, DATA OR PROFITS; OR BUSINESS
    51                           ; INTERRUPTION) HOWSOEVER CAUSED AND ON ANY THEORY OF LIABILITY, WHETHER IN CONTRACT, ST
      +                          RICT
    52                           ; LIABILITY, OR TORT (INCLUDING NEGLIGENCE OR OTHERWISE) ARISING IN ANY WAY OUT OF THE U
      +                          SE OF
    53                           ; THIS SOFTWARE, EVEN IF ADVISED OF THE POSSIBILITY OF SUCH DAMAGE.
    54                           ; 
    55                           ; 
    56                           ; Code-generator required, PIC16F877A Definitions
    57                           ; 
    58                           ; SFR Addresses
    59  0000                     	;# 
    60  0001                     	;# 
    61  0002                     	;# 
    62  0003                     	;# 
    63  0004                     	;# 
    64  0005                     	;# 
    65  0006                     	;# 
    66  0007                     	;# 
    67  0008                     	;# 
    68  0009                     	;# 
    69  000A                     	;# 
    70  000B                     	;# 
    71  000C                     	;# 
    72  000D                     	;# 
    73  000E                     	;# 
    74  000E                     	;# 
    75  000F                     	;# 
    76  0010                     	;# 
    77  0011                     	;# 
    78  0012                     	;# 
    79  0013                     	;# 
    80  0014                     	;# 
    81  0015                     	;# 
    82  0015                     	;# 
    83  0016                     	;# 
    84  0017                     	;# 
    85  0018                     	;# 
    86  0019                     	;# 
    87  001A                     	;# 
    88  001B                     	;# 
    89  001B                     	;# 
    90  001C                     	;# 
    91  001D                     	;# 
    92  001E                     	;# 
    93  001F                     	;# 
    94  0081                     	;# 
    95  0085                     	;# 
    96  0086                     	;# 
    97  0087                     	;# 
    98  0088                     	;# 
    99  0089                     	;# 
   100  008C                     	;# 
   101  008D                     	;# 
   102  008E                     	;# 
   103  0091                     	;# 
   104  0092                     	;# 
   105  0093                     	;# 
   106  0094                     	;# 
   107  0098                     	;# 
   108  0099                     	;# 
   109  009C                     	;# 
   110  009D                     	;# 
   111  009E                     	;# 
   112  009F                     	;# 
   113  010C                     	;# 
   114  010D                     	;# 
   115  010E                     	;# 
   116  010F                     	;# 
   117  018C                     	;# 
   118  018D                     	;# 
   119  0000                     	;# 
   120  0001                     	;# 
   121  0002                     	;# 
   122  0003                     	;# 
   123  0004                     	;# 
   124  0005                     	;# 
   125  0006                     	;# 
   126  0007                     	;# 
   127  0008                     	;# 
   128  0009                     	;# 
   129  000A                     	;# 
   130  000B                     	;# 
   131  000C                     	;# 
   132  000D                     	;# 
   133  000E                     	;# 
   134  000E                     	;# 
   135  000F                     	;# 
   136  0010                     	;# 
   137  0011                     	;# 
   138  0012                     	;# 
   139  0013                     	;# 
   140  0014                     	;# 
   141  0015                     	;# 
   142  0015                     	;# 
   143  0016                     	;# 
   144  0017                     	;# 
   145  0018                     	;# 
   146  0019                     	;# 
   147  001A                     	;# 
   148  001B                     	;# 
   149  001B                     	;# 
   150  001C                     	;# 
   151  001D                     	;# 
   152  001E                     	;# 
   153  001F                     	;# 
   154  0081                     	;# 
   155  0085                     	;# 
   156  0086                     	;# 
   157  0087                     	;# 
   158  0088                     	;# 
   159  0089                     	;# 
   160  008C                     	;# 
   161  008D                     	;# 
   162  008E                     	;# 
   163  0091                     	;# 
   164  0092                     	;# 
   165  0093                     	;# 
   166  0094                     	;# 
   167  0098                     	;# 
   168  0099                     	;# 
   169  009C                     	;# 
   170  009D                     	;# 
   171  009E                     	;# 
   172  009F                     	;# 
   173  010C                     	;# 
   174  010D                     	;# 
   175  010E                     	;# 
   176  010F                     	;# 
   177  018C                     	;# 
   178  018D                     	;# 
   179                           
   180                           	psect	nvBANK1
   181  00A6                     __pnvBANK1:
   182  00A6                     _u32TempFrequency:
   183  00A6                     	ds	4
   184  001B                     _CCPR2L	set	27
   185  0015                     _CCPR1L	set	21
   186  00EA                     _CCP2M2	set	234
   187  00EB                     _CCP2M3	set	235
   188  0092                     _TMR2ON	set	146
   189  0091                     _T2CKPS1	set	145
   190  0090                     _T2CKPS0	set	144
   191  00BA                     _CCP1M2	set	186
   192  00BB                     _CCP1M3	set	187
   193  00EC                     _CCP2Y	set	236
   194  00ED                     _CCP2X	set	237
   195  00BC                     _CCP1Y	set	188
   196  00BD                     _CCP1X	set	189
   197  0092                     _PR2	set	146
   198  0439                     _TRISC1	set	1081
   199  043A                     _TRISC2	set	1082
   200                           
   201                           	psect	cinit
   202  07FC                     start_initialization:	
   203                           ; #config settings
   204                           
   205  07FC                     __initialization:
   206  07FC                     end_of_initialization:	
   207                           ;End of C runtime variable initialization code
   208                           
   209  07FC                     __end_of__initialization:
   210  07FC  0183               	clrf	3
   211  07FD  120A  158A  2E83   	ljmp	_main	;jump to C main() function
   212                           
   213                           	psect	cstackBANK1
   214  00A0                     __pcstackBANK1:
   215  00A0                     ?_PWM1_Duty:
   216  00A0                     ?_PWM2_Duty:	
   217                           ; 1 bytes @ 0x0
   218                           
   219  00A0                     PWM1_Duty@duty:	
   220                           ; 1 bytes @ 0x0
   221                           
   222  00A0                     PWM2_Duty@duty:	
   223                           ; 2 bytes @ 0x0
   224                           
   225                           
   226                           ; 2 bytes @ 0x0
   227  00A0                     	ds	2
   228  00A2                     ??_PWM1_Duty:
   229  00A2                     ??_PWM2_Duty:	
   230                           ; 1 bytes @ 0x2
   231                           
   232                           
   233                           ; 1 bytes @ 0x2
   234  00A2                     	ds	4
   235                           
   236                           	psect	cstackCOMMON
   237  0070                     __pcstackCOMMON:
   238  0070                     ?_PWM1_Start:
   239  0070                     ??_PWM1_Start:	
   240                           ; 1 bytes @ 0x0
   241                           
   242  0070                     ?_PWM2_Start:	
   243                           ; 1 bytes @ 0x0
   244                           
   245  0070                     ??_PWM2_Start:	
   246                           ; 1 bytes @ 0x0
   247                           
   248  0070                     ?_main:	
   249                           ; 1 bytes @ 0x0
   250                           
   251  0070                     ?__Umul8_16:	
   252                           ; 1 bytes @ 0x0
   253                           
   254  0070                     ?___aldiv:	
   255                           ; 2 bytes @ 0x0
   256                           
   257  0070                     __Umul8_16@multiplicand:	
   258                           ; 4 bytes @ 0x0
   259                           
   260  0070                     ___aldiv@divisor:	
   261                           ; 1 bytes @ 0x0
   262                           
   263                           
   264                           ; 4 bytes @ 0x0
   265  0070                     	ds	2
   266  0072                     ??__Umul8_16:
   267                           
   268                           ; 1 bytes @ 0x2
   269  0072                     	ds	2
   270  0074                     __Umul8_16@product:
   271  0074                     ___aldiv@dividend:	
   272                           ; 2 bytes @ 0x4
   273                           
   274                           
   275                           ; 4 bytes @ 0x4
   276  0074                     	ds	2
   277  0076                     __Umul8_16@word_mpld:
   278                           
   279                           ; 2 bytes @ 0x6
   280  0076                     	ds	2
   281  0078                     ??___aldiv:
   282  0078                     __Umul8_16@multiplier:	
   283                           ; 1 bytes @ 0x8
   284                           
   285                           
   286                           ; 1 bytes @ 0x8
   287  0078                     	ds	1
   288  0079                     ??_PWM1_Init:
   289  0079                     ??_PWM2_Init:	
   290                           ; 1 bytes @ 0x9
   291                           
   292  0079                     ??___xxtofl:	
   293                           ; 1 bytes @ 0x9
   294                           
   295                           
   296                           ; 1 bytes @ 0x9
   297  0079                     	ds	4
   298  007D                     ??_main:
   299                           
   300                           	psect	cstackBANK0
   301  0020                     __pcstackBANK0:	
   302                           ; 1 bytes @ 0xD
   303                           
   304  0020                     ___aldiv@counter:
   305                           
   306                           ; 1 bytes @ 0x0
   307  0020                     	ds	1
   308  0021                     ___aldiv@sign:
   309                           
   310                           ; 1 bytes @ 0x1
   311  0021                     	ds	1
   312  0022                     ___aldiv@quotient:
   313                           
   314                           ; 4 bytes @ 0x2
   315  0022                     	ds	4
   316  0026                     ?_PWM1_Init:
   317  0026                     ?_PWM2_Init:	
   318                           ; 1 bytes @ 0x6
   319                           
   320  0026                     ?___xxtofl:	
   321                           ; 1 bytes @ 0x6
   322                           
   323  0026                     PWM1_Init@u32Frequency:	
   324                           ; 4 bytes @ 0x6
   325                           
   326  0026                     PWM2_Init@u32Frequency:	
   327                           ; 4 bytes @ 0x6
   328                           
   329  0026                     ___xxtofl@val:	
   330                           ; 4 bytes @ 0x6
   331                           
   332                           
   333                           ; 4 bytes @ 0x6
   334  0026                     	ds	4
   335  002A                     ___xxtofl@sign:
   336                           
   337                           ; 1 bytes @ 0xA
   338  002A                     	ds	1
   339  002B                     ___xxtofl@exp:
   340                           
   341                           ; 1 bytes @ 0xB
   342  002B                     	ds	1
   343  002C                     ___xxtofl@arg:
   344                           
   345                           ; 4 bytes @ 0xC
   346  002C                     	ds	4
   347  0030                     ?___fldiv:
   348  0030                     ___fldiv@a:	
   349                           ; 4 bytes @ 0x10
   350                           
   351                           
   352                           ; 4 bytes @ 0x10
   353  0030                     	ds	4
   354  0034                     ___fldiv@b:
   355                           
   356                           ; 4 bytes @ 0x14
   357  0034                     	ds	4
   358  0038                     ??___fldiv:
   359                           
   360                           ; 1 bytes @ 0x18
   361  0038                     	ds	5
   362  003D                     ___fldiv@rem:
   363                           
   364                           ; 4 bytes @ 0x1D
   365  003D                     	ds	4
   366  0041                     ___fldiv@sign:
   367                           
   368                           ; 1 bytes @ 0x21
   369  0041                     	ds	1
   370  0042                     ___fldiv@new_exp:
   371                           
   372                           ; 2 bytes @ 0x22
   373  0042                     	ds	2
   374  0044                     ___fldiv@grs:
   375                           
   376                           ; 4 bytes @ 0x24
   377  0044                     	ds	4
   378  0048                     ___fldiv@bexp:
   379                           
   380                           ; 1 bytes @ 0x28
   381  0048                     	ds	1
   382  0049                     ___fldiv@aexp:
   383                           
   384                           ; 1 bytes @ 0x29
   385  0049                     	ds	1
   386  004A                     ?___flmul:
   387  004A                     ___flmul@b:	
   388                           ; 4 bytes @ 0x2A
   389                           
   390                           
   391                           ; 4 bytes @ 0x2A
   392  004A                     	ds	4
   393  004E                     ___flmul@a:
   394                           
   395                           ; 4 bytes @ 0x2E
   396  004E                     	ds	4
   397  0052                     ??___flmul:
   398                           
   399                           ; 1 bytes @ 0x32
   400  0052                     	ds	5
   401  0057                     ___flmul@sign:
   402                           
   403                           ; 1 bytes @ 0x37
   404  0057                     	ds	1
   405  0058                     ___flmul@grs:
   406                           
   407                           ; 4 bytes @ 0x38
   408  0058                     	ds	4
   409  005C                     ___flmul@aexp:
   410                           
   411                           ; 1 bytes @ 0x3C
   412  005C                     	ds	1
   413  005D                     ___flmul@bexp:
   414                           
   415                           ; 1 bytes @ 0x3D
   416  005D                     	ds	1
   417  005E                     ___flmul@prod:
   418                           
   419                           ; 4 bytes @ 0x3E
   420  005E                     	ds	4
   421  0062                     ___flmul@temp:
   422                           
   423                           ; 2 bytes @ 0x42
   424  0062                     	ds	2
   425  0064                     ?___fltol:
   426  0064                     ___fltol@f1:	
   427                           ; 4 bytes @ 0x44
   428                           
   429                           
   430                           ; 4 bytes @ 0x44
   431  0064                     	ds	4
   432  0068                     ??___fltol:
   433                           
   434                           ; 1 bytes @ 0x48
   435  0068                     	ds	5
   436  006D                     ___fltol@sign1:
   437                           
   438                           ; 1 bytes @ 0x4D
   439  006D                     	ds	1
   440  006E                     ___fltol@exp1:
   441                           
   442                           ; 1 bytes @ 0x4E
   443  006E                     	ds	1
   444                           
   445                           	psect	maintext
   446  0E83                     __pmaintext:	
   447 ;;
   448 ;;Main: autosize = 0, tempsize = 0, incstack = 0, save=0
   449 ;;
   450 ;; *************** function _main *****************
   451 ;; Defined at:
   452 ;;		line 26 in file "PWM.c"
   453 ;; Parameters:    Size  Location     Type
   454 ;;		None
   455 ;; Auto vars:     Size  Location     Type
   456 ;;		None
   457 ;; Return value:  Size  Location     Type
   458 ;;                  1    wreg      void 
   459 ;; Registers used:
   460 ;;		wreg, status,2, status,0, btemp+1, pclath, cstack
   461 ;; Tracked objects:
   462 ;;		On entry : B00/0
   463 ;;		On exit  : 0/0
   464 ;;		Unchanged: 0/0
   465 ;; Data sizes:     COMMON   BANK0   BANK1   BANK3   BANK2
   466 ;;      Params:         0       0       0       0       0
   467 ;;      Locals:         0       0       0       0       0
   468 ;;      Temps:          0       0       0       0       0
   469 ;;      Totals:         0       0       0       0       0
   470 ;;Total ram usage:        0 bytes
   471 ;; Hardware stack levels required when called: 3
   472 ;; This function calls:
   473 ;;		_PWM1_Duty
   474 ;;		_PWM1_Init
   475 ;;		_PWM1_Start
   476 ;;		_PWM2_Duty
   477 ;;		_PWM2_Init
   478 ;;		_PWM2_Start
   479 ;; This function is called by:
   480 ;;		Startup code after reset
   481 ;; This function uses a non-reentrant model
   482 ;;
   483                           
   484                           
   485                           ;psect for function _main
   486  0E83                     _main:
   487  0E83                     l1568:	
   488                           ;incstack = 0
   489                           ; Regs used in _main: [wreg+status,2+status,0+btemp+1+pclath+cstack]
   490                           
   491                           
   492                           ;PWM.c: 28: }
   493  0E83  3000               	movlw	0
   494  0E84  1283               	bcf	3,5	;RP0=0, select bank0
   495  0E85  1303               	bcf	3,6	;RP1=0, select bank0
   496  0E86  00A9               	movwf	PWM1_Init@u32Frequency+3
   497  0E87  3000               	movlw	0
   498  0E88  00A8               	movwf	PWM1_Init@u32Frequency+2
   499  0E89  3013               	movlw	19
   500  0E8A  00A7               	movwf	PWM1_Init@u32Frequency+1
   501  0E8B  3088               	movlw	136
   502  0E8C  00A6               	movwf	PWM1_Init@u32Frequency
   503  0E8D  120A  158A  26C5  120A  158A  	fcall	_PWM1_Init
   504                           
   505                           ;PWM.c: 29: 
   506  0E92  3000               	movlw	0
   507  0E93  1283               	bcf	3,5	;RP0=0, select bank0
   508  0E94  1303               	bcf	3,6	;RP1=0, select bank0
   509  0E95  00A9               	movwf	PWM2_Init@u32Frequency+3
   510  0E96  3000               	movlw	0
   511  0E97  00A8               	movwf	PWM2_Init@u32Frequency+2
   512  0E98  3013               	movlw	19
   513  0E99  00A7               	movwf	PWM2_Init@u32Frequency+1
   514  0E9A  3088               	movlw	136
   515  0E9B  00A6               	movwf	PWM2_Init@u32Frequency
   516  0E9C  120A  158A  2714  120A  158A  	fcall	_PWM2_Init
   517  0EA1                     l1570:
   518                           
   519                           ;PWM.c: 30: void PWM2_Init(long u32Frequency)
   520  0EA1  3000               	movlw	0
   521  0EA2  1683               	bsf	3,5	;RP0=1, select bank1
   522  0EA3  1303               	bcf	3,6	;RP1=0, select bank1
   523  0EA4  00A0               	movwf	PWM1_Duty@duty^(0+128)
   524  0EA5  3002               	movlw	2
   525  0EA6  00A1               	movwf	(PWM1_Duty@duty^(0+128)+1)
   526  0EA7  120A  118A  213E  120A  158A  	fcall	_PWM1_Duty
   527  0EAC                     l1572:
   528                           
   529                           ;PWM.c: 31: {
   530  0EAC  3000               	movlw	0
   531  0EAD  1683               	bsf	3,5	;RP0=1, select bank1
   532  0EAE  1303               	bcf	3,6	;RP1=0, select bank1
   533  0EAF  00A0               	movwf	PWM2_Duty@duty^(0+128)
   534  0EB0  3003               	movlw	3
   535  0EB1  00A1               	movwf	(PWM2_Duty@duty^(0+128)+1)
   536  0EB2  120A  118A  21FE  120A  158A  	fcall	_PWM2_Duty
   537  0EB7                     l1574:
   538                           
   539                           ;PWM.c: 32:     PR2 = (20000000/(u32Frequency*4*4)) - 1;
   540  0EB7  120A  158A  2646  120A  158A  	fcall	_PWM1_Start
   541  0EBC                     l1576:
   542                           
   543                           ;PWM.c: 33:     u32TempFrequency = u32Frequency;
   544  0EBC  120A  158A  2651  120A  158A  	fcall	_PWM2_Start
   545  0EC1                     l51:	
   546                           ;PWM.c: 34: }
   547                           
   548  0EC1                     l52:	
   549                           ;PWM.c: 35: ;PWM.c: 37: {
   550                           
   551  0EC1  2EC1               	goto	l51
   552  0EC2  120A  118A  2800   	ljmp	start
   553  0EC5                     __end_of_main:
   554                           
   555                           	psect	text1
   556  0E51                     __ptext1:	
   557 ;; *************** function _PWM2_Start *****************
   558 ;; Defined at:
   559 ;;		line 93 in file "PWM.c"
   560 ;; Parameters:    Size  Location     Type
   561 ;;		None
   562 ;; Auto vars:     Size  Location     Type
   563 ;;		None
   564 ;; Return value:  Size  Location     Type
   565 ;;                  1    wreg      void 
   566 ;; Registers used:
   567 ;;		None
   568 ;; Tracked objects:
   569 ;;		On entry : 0/0
   570 ;;		On exit  : 0/0
   571 ;;		Unchanged: 0/0
   572 ;; Data sizes:     COMMON   BANK0   BANK1   BANK3   BANK2
   573 ;;      Params:         0       0       0       0       0
   574 ;;      Locals:         0       0       0       0       0
   575 ;;      Temps:          0       0       0       0       0
   576 ;;      Totals:         0       0       0       0       0
   577 ;;Total ram usage:        0 bytes
   578 ;; Hardware stack levels used: 1
   579 ;; This function calls:
   580 ;;		Nothing
   581 ;; This function is called by:
   582 ;;		_main
   583 ;; This function uses a non-reentrant model
   584 ;;
   585                           
   586                           
   587                           ;psect for function _PWM2_Start
   588  0E51                     _PWM2_Start:
   589  0E51                     l1112:	
   590                           ;incstack = 0
   591                           ; Regs used in _PWM2_Start: []
   592                           
   593  0E51  1283               	bcf	3,5	;RP0=0, select bank0
   594  0E52  1303               	bcf	3,6	;RP1=0, select bank0
   595  0E53  159D               	bsf	29,3	;volatile
   596  0E54  151D               	bsf	29,2	;volatile
   597  0E55  1412               	bsf	18,0	;volatile
   598  0E56  1092               	bcf	18,1	;volatile
   599  0E57  1512               	bsf	18,2	;volatile
   600  0E58  1683               	bsf	3,5	;RP0=1, select bank1
   601  0E59  1303               	bcf	3,6	;RP1=0, select bank1
   602  0E5A  1087               	bcf	7,1	;volatile
   603  0E5B                     l74:
   604  0E5B  0008               	return
   605  0E5C                     __end_of_PWM2_Start:
   606                           
   607                           	psect	text2
   608  0F14                     __ptext2:	
   609 ;; *************** function _PWM2_Init *****************
   610 ;; Defined at:
   611 ;;		line 46 in file "PWM.c"
   612 ;; Parameters:    Size  Location     Type
   613 ;;  u32Frequency    4    6[BANK0 ] long 
   614 ;; Auto vars:     Size  Location     Type
   615 ;;		None
   616 ;; Return value:  Size  Location     Type
   617 ;;                  1    wreg      void 
   618 ;; Registers used:
   619 ;;		wreg, status,2, status,0, pclath, cstack
   620 ;; Tracked objects:
   621 ;;		On entry : 0/0
   622 ;;		On exit  : 0/0
   623 ;;		Unchanged: 0/0
   624 ;; Data sizes:     COMMON   BANK0   BANK1   BANK3   BANK2
   625 ;;      Params:         0       4       0       0       0
   626 ;;      Locals:         0       0       0       0       0
   627 ;;      Temps:          4       0       0       0       0
   628 ;;      Totals:         4       4       0       0       0
   629 ;;Total ram usage:        8 bytes
   630 ;; Hardware stack levels used: 1
   631 ;; Hardware stack levels required when called: 1
   632 ;; This function calls:
   633 ;;		___aldiv
   634 ;; This function is called by:
   635 ;;		_main
   636 ;; This function uses a non-reentrant model
   637 ;;
   638                           
   639                           
   640                           ;psect for function _PWM2_Init
   641  0F14                     _PWM2_Init:
   642  0F14                     l1544:	
   643                           ;incstack = 0
   644                           ; Regs used in _PWM2_Init: [wreg+status,2+status,0+pclath+cstack]
   645                           
   646                           
   647                           ;PWM.c: 46: ;PWM.c: 47: void PWM2_Duty(unsigned int duty);PWM.c: 48: {
   648  0F14  1283               	bcf	3,5	;RP0=0, select bank0
   649  0F15  1303               	bcf	3,6	;RP1=0, select bank0
   650  0F16  0826               	movf	PWM2_Init@u32Frequency,w
   651  0F17  00F9               	movwf	??_PWM2_Init
   652  0F18  0827               	movf	PWM2_Init@u32Frequency+1,w
   653  0F19  00FA               	movwf	??_PWM2_Init+1
   654  0F1A  0828               	movf	PWM2_Init@u32Frequency+2,w
   655  0F1B  00FB               	movwf	??_PWM2_Init+2
   656  0F1C  0829               	movf	PWM2_Init@u32Frequency+3,w
   657  0F1D  00FC               	movwf	??_PWM2_Init+3
   658  0F1E  3002               	movlw	2
   659  0F1F                     u2215:
   660  0F1F  1003               	clrc
   661  0F20  0DF9               	rlf	??_PWM2_Init,f
   662  0F21  0DFA               	rlf	??_PWM2_Init+1,f
   663  0F22  0DFB               	rlf	??_PWM2_Init+2,f
   664  0F23  0DFC               	rlf	??_PWM2_Init+3,f
   665  0F24                     u2210:
   666  0F24  3EFF               	addlw	-1
   667  0F25  1D03               	skipz
   668  0F26  2F1F               	goto	u2215
   669  0F27  3002               	movlw	2
   670  0F28                     u2225:
   671  0F28  1003               	clrc
   672  0F29  0DF9               	rlf	??_PWM2_Init,f
   673  0F2A  0DFA               	rlf	??_PWM2_Init+1,f
   674  0F2B  0DFB               	rlf	??_PWM2_Init+2,f
   675  0F2C  0DFC               	rlf	??_PWM2_Init+3,f
   676  0F2D                     u2220:
   677  0F2D  3EFF               	addlw	-1
   678  0F2E  1D03               	skipz
   679  0F2F  2F28               	goto	u2225
   680  0F30  087C               	movf	??_PWM2_Init+3,w
   681  0F31  00F3               	movwf	___aldiv@divisor+3
   682  0F32  087B               	movf	??_PWM2_Init+2,w
   683  0F33  00F2               	movwf	___aldiv@divisor+2
   684  0F34  087A               	movf	??_PWM2_Init+1,w
   685  0F35  00F1               	movwf	___aldiv@divisor+1
   686  0F36  0879               	movf	??_PWM2_Init,w
   687  0F37  00F0               	movwf	___aldiv@divisor
   688  0F38  3001               	movlw	1
   689  0F39  00F7               	movwf	___aldiv@dividend+3
   690  0F3A  3031               	movlw	49
   691  0F3B  00F6               	movwf	___aldiv@dividend+2
   692  0F3C  302D               	movlw	45
   693  0F3D  00F5               	movwf	___aldiv@dividend+1
   694  0F3E  3000               	movlw	0
   695  0F3F  00F4               	movwf	___aldiv@dividend
   696  0F40  120A  158A  2763  120A  158A  	fcall	___aldiv
   697  0F45  0870               	movf	?___aldiv,w
   698  0F46  3EFF               	addlw	255
   699  0F47  1683               	bsf	3,5	;RP0=1, select bank1
   700  0F48  1303               	bcf	3,6	;RP1=0, select bank1
   701  0F49  0092               	movwf	18	;volatile
   702  0F4A                     l1546:
   703                           
   704                           ;PWM.c: 49:     if(duty<1024)
   705  0F4A  1283               	bcf	3,5	;RP0=0, select bank0
   706  0F4B  1303               	bcf	3,6	;RP1=0, select bank0
   707  0F4C  0829               	movf	PWM2_Init@u32Frequency+3,w
   708  0F4D  1683               	bsf	3,5	;RP0=1, select bank1
   709  0F4E  1303               	bcf	3,6	;RP1=0, select bank1
   710  0F4F  00A9               	movwf	(_u32TempFrequency+3)^(0+128)
   711  0F50  1283               	bcf	3,5	;RP0=0, select bank0
   712  0F51  1303               	bcf	3,6	;RP1=0, select bank0
   713  0F52  0828               	movf	PWM2_Init@u32Frequency+2,w
   714  0F53  1683               	bsf	3,5	;RP0=1, select bank1
   715  0F54  1303               	bcf	3,6	;RP1=0, select bank1
   716  0F55  00A8               	movwf	(_u32TempFrequency+2)^(0+128)
   717  0F56  1283               	bcf	3,5	;RP0=0, select bank0
   718  0F57  1303               	bcf	3,6	;RP1=0, select bank0
   719  0F58  0827               	movf	PWM2_Init@u32Frequency+1,w
   720  0F59  1683               	bsf	3,5	;RP0=1, select bank1
   721  0F5A  1303               	bcf	3,6	;RP1=0, select bank1
   722  0F5B  00A7               	movwf	(_u32TempFrequency+1)^(0+128)
   723  0F5C  1283               	bcf	3,5	;RP0=0, select bank0
   724  0F5D  1303               	bcf	3,6	;RP1=0, select bank0
   725  0F5E  0826               	movf	PWM2_Init@u32Frequency,w
   726  0F5F  1683               	bsf	3,5	;RP0=1, select bank1
   727  0F60  1303               	bcf	3,6	;RP1=0, select bank1
   728  0F61  00A6               	movwf	_u32TempFrequency^(0+128)
   729  0F62                     l60:
   730  0F62  0008               	return
   731  0F63                     __end_of_PWM2_Init:
   732                           
   733                           	psect	text3
   734  01FE                     __ptext3:	
   735 ;; *************** function _PWM2_Duty *****************
   736 ;; Defined at:
   737 ;;		line 63 in file "PWM.c"
   738 ;; Parameters:    Size  Location     Type
   739 ;;  duty            2    0[BANK1 ] unsigned int 
   740 ;; Auto vars:     Size  Location     Type
   741 ;;		None
   742 ;; Return value:  Size  Location     Type
   743 ;;                  1    wreg      void 
   744 ;; Registers used:
   745 ;;		wreg, status,2, status,0, btemp+1, pclath, cstack
   746 ;; Tracked objects:
   747 ;;		On entry : 0/0
   748 ;;		On exit  : 0/0
   749 ;;		Unchanged: 0/0
   750 ;; Data sizes:     COMMON   BANK0   BANK1   BANK3   BANK2
   751 ;;      Params:         0       0       2       0       0
   752 ;;      Locals:         0       0       0       0       0
   753 ;;      Temps:          0       0       4       0       0
   754 ;;      Totals:         0       0       6       0       0
   755 ;;Total ram usage:        6 bytes
   756 ;; Hardware stack levels used: 1
   757 ;; Hardware stack levels required when called: 2
   758 ;; This function calls:
   759 ;;		___aldiv
   760 ;;		___fldiv
   761 ;;		___flmul
   762 ;;		___fltol
   763 ;;		___xxtofl
   764 ;; This function is called by:
   765 ;;		_main
   766 ;; This function uses a non-reentrant model
   767 ;;
   768                           
   769                           
   770                           ;psect for function _PWM2_Duty
   771  01FE                     _PWM2_Duty:
   772  01FE                     l1558:	
   773                           ;incstack = 0
   774                           ; Regs used in _PWM2_Duty: [wreg+status,2+status,0+btemp+1+pclath+cstack]
   775                           
   776                           
   777                           ;PWM.c: 63: ;PWM.c: 64: ;PWM.c: 65: 
   778  01FE  3004               	movlw	4
   779  01FF  1683               	bsf	3,5	;RP0=1, select bank1
   780  0200  1303               	bcf	3,6	;RP1=0, select bank1
   781  0201  0221               	subwf	(PWM2_Duty@duty+1)^(0+128),w
   782  0202  3000               	movlw	0
   783  0203  1903               	skipnz
   784  0204  0220               	subwf	PWM2_Duty@duty^(0+128),w
   785  0205  1803               	skipnc
   786  0206  2A08               	goto	u2271
   787  0207  2A09               	goto	u2270
   788  0208                     u2271:
   789  0208  2ABD               	goto	l68
   790  0209                     u2270:
   791  0209                     l1560:
   792                           
   793                           ;PWM.c: 66: ;PWM.c: 67:     T2CKPS0 = 1;
   794  0209  0820               	movf	PWM2_Duty@duty^(0+128),w
   795  020A  1283               	bcf	3,5	;RP0=0, select bank0
   796  020B  1303               	bcf	3,6	;RP1=0, select bank0
   797  020C  00A6               	movwf	___xxtofl@val
   798  020D  1683               	bsf	3,5	;RP0=1, select bank1
   799  020E  1303               	bcf	3,6	;RP1=0, select bank1
   800  020F  0821               	movf	(PWM2_Duty@duty+1)^(0+128),w
   801  0210  1283               	bcf	3,5	;RP0=0, select bank0
   802  0211  1303               	bcf	3,6	;RP1=0, select bank0
   803  0212  00A7               	movwf	___xxtofl@val+1
   804  0213  01A8               	clrf	___xxtofl@val+2
   805  0214  01A9               	clrf	___xxtofl@val+3
   806  0215  3000               	movlw	0
   807  0216  120A  118A  2082  120A  118A  	fcall	___xxtofl
   808  021B  1283               	bcf	3,5	;RP0=0, select bank0
   809  021C  1303               	bcf	3,6	;RP1=0, select bank0
   810  021D  0829               	movf	?___xxtofl+3,w
   811  021E  00B7               	movwf	___fldiv@b+3
   812  021F  0828               	movf	?___xxtofl+2,w
   813  0220  00B6               	movwf	___fldiv@b+2
   814  0221  0827               	movf	?___xxtofl+1,w
   815  0222  00B5               	movwf	___fldiv@b+1
   816  0223  0826               	movf	?___xxtofl,w
   817  0224  00B4               	movwf	___fldiv@b
   818  0225  3044               	movlw	68
   819  0226  00B3               	movwf	___fldiv@a+3
   820  0227  307F               	movlw	127
   821  0228  00B2               	movwf	___fldiv@a+2
   822  0229  30C0               	movlw	192
   823  022A  00B1               	movwf	___fldiv@a+1
   824  022B  3000               	movlw	0
   825  022C  00B0               	movwf	___fldiv@a
   826  022D  120A  118A  22BE  120A  118A  	fcall	___fldiv
   827  0232  1283               	bcf	3,5	;RP0=0, select bank0
   828  0233  1303               	bcf	3,6	;RP1=0, select bank0
   829  0234  0833               	movf	?___fldiv+3,w
   830  0235  00D1               	movwf	___flmul@a+3
   831  0236  0832               	movf	?___fldiv+2,w
   832  0237  00D0               	movwf	___flmul@a+2
   833  0238  0831               	movf	?___fldiv+1,w
   834  0239  00CF               	movwf	___flmul@a+1
   835  023A  0830               	movf	?___fldiv,w
   836  023B  00CE               	movwf	___flmul@a
   837  023C  3001               	movlw	1
   838  023D  00F7               	movwf	___aldiv@dividend+3
   839  023E  3031               	movlw	49
   840  023F  00F6               	movwf	___aldiv@dividend+2
   841  0240  302D               	movlw	45
   842  0241  00F5               	movwf	___aldiv@dividend+1
   843  0242  3000               	movlw	0
   844  0243  00F4               	movwf	___aldiv@dividend
   845  0244  1683               	bsf	3,5	;RP0=1, select bank1
   846  0245  1303               	bcf	3,6	;RP1=0, select bank1
   847  0246  0826               	movf	_u32TempFrequency^(0+128),w
   848  0247  00A2               	movwf	??_PWM2_Duty^(0+128)
   849  0248  0827               	movf	(_u32TempFrequency+1)^(0+128),w
   850  0249  00A3               	movwf	(??_PWM2_Duty^(0+128)+1)
   851  024A  0828               	movf	(_u32TempFrequency+2)^(0+128),w
   852  024B  00A4               	movwf	(??_PWM2_Duty^(0+128)+2)
   853  024C  0829               	movf	(_u32TempFrequency+3)^(0+128),w
   854  024D  00A5               	movwf	(??_PWM2_Duty^(0+128)+3)
   855  024E  3002               	movlw	2
   856  024F                     u2285:
   857  024F  1003               	clrc
   858  0250  0DA2               	rlf	??_PWM2_Duty^(0+128),f
   859  0251  0DA3               	rlf	(??_PWM2_Duty^(0+128)+1),f
   860  0252  0DA4               	rlf	(??_PWM2_Duty^(0+128)+2),f
   861  0253  0DA5               	rlf	(??_PWM2_Duty^(0+128)+3),f
   862  0254                     u2280:
   863  0254  3EFF               	addlw	-1
   864  0255  1D03               	skipz
   865  0256  2A4F               	goto	u2285
   866  0257  0825               	movf	(??_PWM2_Duty+3)^(0+128),w
   867  0258  00F3               	movwf	___aldiv@divisor+3
   868  0259  0824               	movf	(??_PWM2_Duty+2)^(0+128),w
   869  025A  00F2               	movwf	___aldiv@divisor+2
   870  025B  0823               	movf	(??_PWM2_Duty+1)^(0+128),w
   871  025C  00F1               	movwf	___aldiv@divisor+1
   872  025D  0822               	movf	??_PWM2_Duty^(0+128),w
   873  025E  00F0               	movwf	___aldiv@divisor
   874  025F  120A  158A  2763  120A  118A  	fcall	___aldiv
   875  0264  0873               	movf	?___aldiv+3,w
   876  0265  1283               	bcf	3,5	;RP0=0, select bank0
   877  0266  1303               	bcf	3,6	;RP1=0, select bank0
   878  0267  00A9               	movwf	___xxtofl@val+3
   879  0268  0872               	movf	?___aldiv+2,w
   880  0269  00A8               	movwf	___xxtofl@val+2
   881  026A  0871               	movf	?___aldiv+1,w
   882  026B  00A7               	movwf	___xxtofl@val+1
   883  026C  0870               	movf	?___aldiv,w
   884  026D  00A6               	movwf	___xxtofl@val
   885  026E  3001               	movlw	1
   886  026F  120A  118A  2082  120A  118A  	fcall	___xxtofl
   887  0274  1283               	bcf	3,5	;RP0=0, select bank0
   888  0275  1303               	bcf	3,6	;RP1=0, select bank0
   889  0276  0829               	movf	?___xxtofl+3,w
   890  0277  00CD               	movwf	___flmul@b+3
   891  0278  0828               	movf	?___xxtofl+2,w
   892  0279  00CC               	movwf	___flmul@b+2
   893  027A  0827               	movf	?___xxtofl+1,w
   894  027B  00CB               	movwf	___flmul@b+1
   895  027C  0826               	movf	?___xxtofl,w
   896  027D  00CA               	movwf	___flmul@b
   897  027E  120A  118A  249B  120A  118A  	fcall	___flmul
   898  0283  1283               	bcf	3,5	;RP0=0, select bank0
   899  0284  1303               	bcf	3,6	;RP1=0, select bank0
   900  0285  084D               	movf	?___flmul+3,w
   901  0286  00E7               	movwf	___fltol@f1+3
   902  0287  084C               	movf	?___flmul+2,w
   903  0288  00E6               	movwf	___fltol@f1+2
   904  0289  084B               	movf	?___flmul+1,w
   905  028A  00E5               	movwf	___fltol@f1+1
   906  028B  084A               	movf	?___flmul,w
   907  028C  00E4               	movwf	___fltol@f1
   908  028D  120A  118A  2006  120A  118A  	fcall	___fltol
   909  0292  1283               	bcf	3,5	;RP0=0, select bank0
   910  0293  1303               	bcf	3,6	;RP1=0, select bank0
   911  0294  0865               	movf	?___fltol+1,w
   912  0295  1683               	bsf	3,5	;RP0=1, select bank1
   913  0296  1303               	bcf	3,6	;RP1=0, select bank1
   914  0297  00A1               	movwf	(PWM2_Duty@duty+1)^(0+128)
   915  0298  1283               	bcf	3,5	;RP0=0, select bank0
   916  0299  1303               	bcf	3,6	;RP1=0, select bank0
   917  029A  0864               	movf	?___fltol,w
   918  029B  1683               	bsf	3,5	;RP0=1, select bank1
   919  029C  1303               	bcf	3,6	;RP1=0, select bank1
   920  029D  00A0               	movwf	PWM2_Duty@duty^(0+128)
   921  029E                     l1562:
   922                           
   923                           ;PWM.c: 68:     T2CKPS1 = 0;
   924  029E  1283               	bcf	3,5	;RP0=0, select bank0
   925  029F  1303               	bcf	3,6	;RP1=0, select bank0
   926  02A0  129D               	bcf	29,5	;volatile
   927  02A1                     l1564:
   928                           
   929                           ;PWM.c: 69: 
   930  02A1  1683               	bsf	3,5	;RP0=1, select bank1
   931  02A2  1303               	bcf	3,6	;RP1=0, select bank1
   932  02A3  1820               	btfsc	PWM2_Duty@duty^(0+128),0
   933  02A4  2AA6               	goto	u2291
   934  02A5  2AAA               	goto	u2290
   935  02A6                     u2291:
   936  02A6  1283               	bcf	3,5	;RP0=0, select bank0
   937  02A7  1303               	bcf	3,6	;RP1=0, select bank0
   938  02A8  161D               	bsf	29,4	;volatile
   939  02A9  2AAD               	goto	u2304
   940  02AA                     u2290:
   941  02AA  1283               	bcf	3,5	;RP0=0, select bank0
   942  02AB  1303               	bcf	3,6	;RP1=0, select bank0
   943  02AC  121D               	bcf	29,4	;volatile
   944  02AD                     u2304:
   945  02AD                     l1566:
   946                           
   947                           ;PWM.c: 70: 
   948  02AD  1683               	bsf	3,5	;RP0=1, select bank1
   949  02AE  1303               	bcf	3,6	;RP1=0, select bank1
   950  02AF  0821               	movf	(PWM2_Duty@duty+1)^(0+128),w
   951  02B0  00A3               	movwf	(??_PWM2_Duty^(0+128)+1)
   952  02B1  0820               	movf	PWM2_Duty@duty^(0+128),w
   953  02B2  00A2               	movwf	??_PWM2_Duty^(0+128)
   954  02B3  1003               	clrc
   955  02B4  0CA3               	rrf	(??_PWM2_Duty^(0+128)+1),f
   956  02B5  0CA2               	rrf	??_PWM2_Duty^(0+128),f
   957  02B6  1003               	clrc
   958  02B7  0CA3               	rrf	(??_PWM2_Duty^(0+128)+1),f
   959  02B8  0CA2               	rrf	??_PWM2_Duty^(0+128),f
   960  02B9  0822               	movf	??_PWM2_Duty^(0+128),w
   961  02BA  1283               	bcf	3,5	;RP0=0, select bank0
   962  02BB  1303               	bcf	3,6	;RP1=0, select bank0
   963  02BC  009B               	movwf	27	;volatile
   964  02BD                     l68:
   965  02BD  0008               	return
   966  02BE                     __end_of_PWM2_Duty:
   967                           
   968                           	psect	text4
   969  0E46                     __ptext4:	
   970 ;; *************** function _PWM1_Start *****************
   971 ;; Defined at:
   972 ;;		line 74 in file "PWM.c"
   973 ;; Parameters:    Size  Location     Type
   974 ;;		None
   975 ;; Auto vars:     Size  Location     Type
   976 ;;		None
   977 ;; Return value:  Size  Location     Type
   978 ;;                  1    wreg      void 
   979 ;; Registers used:
   980 ;;		None
   981 ;; Tracked objects:
   982 ;;		On entry : 0/0
   983 ;;		On exit  : 0/0
   984 ;;		Unchanged: 0/0
   985 ;; Data sizes:     COMMON   BANK0   BANK1   BANK3   BANK2
   986 ;;      Params:         0       0       0       0       0
   987 ;;      Locals:         0       0       0       0       0
   988 ;;      Temps:          0       0       0       0       0
   989 ;;      Totals:         0       0       0       0       0
   990 ;;Total ram usage:        0 bytes
   991 ;; Hardware stack levels used: 1
   992 ;; This function calls:
   993 ;;		Nothing
   994 ;; This function is called by:
   995 ;;		_main
   996 ;; This function uses a non-reentrant model
   997 ;;
   998                           
   999                           
  1000                           ;psect for function _PWM1_Start
  1001  0E46                     _PWM1_Start:
  1002  0E46                     l1110:	
  1003                           ;incstack = 0
  1004                           ; Regs used in _PWM1_Start: []
  1005                           
  1006                           
  1007                           ;PWM.c: 77: void PWM2_Start(void)
  1008  0E46  1283               	bcf	3,5	;RP0=0, select bank0
  1009  0E47  1303               	bcf	3,6	;RP1=0, select bank0
  1010  0E48  1597               	bsf	23,3	;volatile
  1011                           
  1012                           ;PWM.c: 78: {
  1013  0E49  1517               	bsf	23,2	;volatile
  1014                           
  1015                           ;PWM.c: 83: 
  1016  0E4A  1412               	bsf	18,0	;volatile
  1017                           
  1018                           ;PWM.c: 84: 
  1019  0E4B  1092               	bcf	18,1	;volatile
  1020                           
  1021                           ;PWM.c: 89: 
  1022  0E4C  1512               	bsf	18,2	;volatile
  1023                           
  1024                           ;PWM.c: 90: 
  1025  0E4D  1683               	bsf	3,5	;RP0=1, select bank1
  1026  0E4E  1303               	bcf	3,6	;RP1=0, select bank1
  1027  0E4F  1107               	bcf	7,2	;volatile
  1028  0E50                     l71:
  1029  0E50  0008               	return
  1030  0E51                     __end_of_PWM1_Start:
  1031                           
  1032                           	psect	text5
  1033  0EC5                     __ptext5:	
  1034 ;; *************** function _PWM1_Init *****************
  1035 ;; Defined at:
  1036 ;;		line 40 in file "PWM.c"
  1037 ;; Parameters:    Size  Location     Type
  1038 ;;  u32Frequency    4    6[BANK0 ] long 
  1039 ;; Auto vars:     Size  Location     Type
  1040 ;;		None
  1041 ;; Return value:  Size  Location     Type
  1042 ;;                  1    wreg      void 
  1043 ;; Registers used:
  1044 ;;		wreg, status,2, status,0, pclath, cstack
  1045 ;; Tracked objects:
  1046 ;;		On entry : 0/0
  1047 ;;		On exit  : 0/0
  1048 ;;		Unchanged: 0/0
  1049 ;; Data sizes:     COMMON   BANK0   BANK1   BANK3   BANK2
  1050 ;;      Params:         0       4       0       0       0
  1051 ;;      Locals:         0       0       0       0       0
  1052 ;;      Temps:          4       0       0       0       0
  1053 ;;      Totals:         4       4       0       0       0
  1054 ;;Total ram usage:        8 bytes
  1055 ;; Hardware stack levels used: 1
  1056 ;; Hardware stack levels required when called: 1
  1057 ;; This function calls:
  1058 ;;		___aldiv
  1059 ;; This function is called by:
  1060 ;;		_main
  1061 ;; This function uses a non-reentrant model
  1062 ;;
  1063                           
  1064                           
  1065                           ;psect for function _PWM1_Init
  1066  0EC5                     _PWM1_Init:
  1067  0EC5                     l1540:	
  1068                           ;incstack = 0
  1069                           ; Regs used in _PWM1_Init: [wreg+status,2+status,0+pclath+cstack]
  1070                           
  1071                           
  1072                           ;PWM.c: 40:         duty = ((float)duty/1023)*(20000000/(u32TempFrequency*4));;PWM.c: 41
      +                          :         CCP1X = duty & 2;;PWM.c: 42:         CCP1Y = duty & 1;
  1073  0EC5  1283               	bcf	3,5	;RP0=0, select bank0
  1074  0EC6  1303               	bcf	3,6	;RP1=0, select bank0
  1075  0EC7  0826               	movf	PWM1_Init@u32Frequency,w
  1076  0EC8  00F9               	movwf	??_PWM1_Init
  1077  0EC9  0827               	movf	PWM1_Init@u32Frequency+1,w
  1078  0ECA  00FA               	movwf	??_PWM1_Init+1
  1079  0ECB  0828               	movf	PWM1_Init@u32Frequency+2,w
  1080  0ECC  00FB               	movwf	??_PWM1_Init+2
  1081  0ECD  0829               	movf	PWM1_Init@u32Frequency+3,w
  1082  0ECE  00FC               	movwf	??_PWM1_Init+3
  1083  0ECF  3002               	movlw	2
  1084  0ED0                     u2195:
  1085  0ED0  1003               	clrc
  1086  0ED1  0DF9               	rlf	??_PWM1_Init,f
  1087  0ED2  0DFA               	rlf	??_PWM1_Init+1,f
  1088  0ED3  0DFB               	rlf	??_PWM1_Init+2,f
  1089  0ED4  0DFC               	rlf	??_PWM1_Init+3,f
  1090  0ED5                     u2190:
  1091  0ED5  3EFF               	addlw	-1
  1092  0ED6  1D03               	skipz
  1093  0ED7  2ED0               	goto	u2195
  1094  0ED8  3002               	movlw	2
  1095  0ED9                     u2205:
  1096  0ED9  1003               	clrc
  1097  0EDA  0DF9               	rlf	??_PWM1_Init,f
  1098  0EDB  0DFA               	rlf	??_PWM1_Init+1,f
  1099  0EDC  0DFB               	rlf	??_PWM1_Init+2,f
  1100  0EDD  0DFC               	rlf	??_PWM1_Init+3,f
  1101  0EDE                     u2200:
  1102  0EDE  3EFF               	addlw	-1
  1103  0EDF  1D03               	skipz
  1104  0EE0  2ED9               	goto	u2205
  1105  0EE1  087C               	movf	??_PWM1_Init+3,w
  1106  0EE2  00F3               	movwf	___aldiv@divisor+3
  1107  0EE3  087B               	movf	??_PWM1_Init+2,w
  1108  0EE4  00F2               	movwf	___aldiv@divisor+2
  1109  0EE5  087A               	movf	??_PWM1_Init+1,w
  1110  0EE6  00F1               	movwf	___aldiv@divisor+1
  1111  0EE7  0879               	movf	??_PWM1_Init,w
  1112  0EE8  00F0               	movwf	___aldiv@divisor
  1113  0EE9  3001               	movlw	1
  1114  0EEA  00F7               	movwf	___aldiv@dividend+3
  1115  0EEB  3031               	movlw	49
  1116  0EEC  00F6               	movwf	___aldiv@dividend+2
  1117  0EED  302D               	movlw	45
  1118  0EEE  00F5               	movwf	___aldiv@dividend+1
  1119  0EEF  3000               	movlw	0
  1120  0EF0  00F4               	movwf	___aldiv@dividend
  1121  0EF1  120A  158A  2763  120A  158A  	fcall	___aldiv
  1122  0EF6  0870               	movf	?___aldiv,w
  1123  0EF7  3EFF               	addlw	255
  1124  0EF8  1683               	bsf	3,5	;RP0=1, select bank1
  1125  0EF9  1303               	bcf	3,6	;RP1=0, select bank1
  1126  0EFA  0092               	movwf	18	;volatile
  1127  0EFB                     l1542:
  1128                           
  1129                           ;PWM.c: 43:         CCPR1L = duty>>2;
  1130  0EFB  1283               	bcf	3,5	;RP0=0, select bank0
  1131  0EFC  1303               	bcf	3,6	;RP1=0, select bank0
  1132  0EFD  0829               	movf	PWM1_Init@u32Frequency+3,w
  1133  0EFE  1683               	bsf	3,5	;RP0=1, select bank1
  1134  0EFF  1303               	bcf	3,6	;RP1=0, select bank1
  1135  0F00  00A9               	movwf	(_u32TempFrequency+3)^(0+128)
  1136  0F01  1283               	bcf	3,5	;RP0=0, select bank0
  1137  0F02  1303               	bcf	3,6	;RP1=0, select bank0
  1138  0F03  0828               	movf	PWM1_Init@u32Frequency+2,w
  1139  0F04  1683               	bsf	3,5	;RP0=1, select bank1
  1140  0F05  1303               	bcf	3,6	;RP1=0, select bank1
  1141  0F06  00A8               	movwf	(_u32TempFrequency+2)^(0+128)
  1142  0F07  1283               	bcf	3,5	;RP0=0, select bank0
  1143  0F08  1303               	bcf	3,6	;RP1=0, select bank0
  1144  0F09  0827               	movf	PWM1_Init@u32Frequency+1,w
  1145  0F0A  1683               	bsf	3,5	;RP0=1, select bank1
  1146  0F0B  1303               	bcf	3,6	;RP1=0, select bank1
  1147  0F0C  00A7               	movwf	(_u32TempFrequency+1)^(0+128)
  1148  0F0D  1283               	bcf	3,5	;RP0=0, select bank0
  1149  0F0E  1303               	bcf	3,6	;RP1=0, select bank0
  1150  0F0F  0826               	movf	PWM1_Init@u32Frequency,w
  1151  0F10  1683               	bsf	3,5	;RP0=1, select bank1
  1152  0F11  1303               	bcf	3,6	;RP1=0, select bank1
  1153  0F12  00A6               	movwf	_u32TempFrequency^(0+128)
  1154  0F13                     l57:
  1155  0F13  0008               	return
  1156  0F14                     __end_of_PWM1_Init:
  1157                           
  1158                           	psect	text6
  1159  013E                     __ptext6:	
  1160 ;; *************** function _PWM1_Duty *****************
  1161 ;; Defined at:
  1162 ;;		line 52 in file "PWM.c"
  1163 ;; Parameters:    Size  Location     Type
  1164 ;;  duty            2    0[BANK1 ] unsigned int 
  1165 ;; Auto vars:     Size  Location     Type
  1166 ;;		None
  1167 ;; Return value:  Size  Location     Type
  1168 ;;                  1    wreg      void 
  1169 ;; Registers used:
  1170 ;;		wreg, status,2, status,0, btemp+1, pclath, cstack
  1171 ;; Tracked objects:
  1172 ;;		On entry : 0/0
  1173 ;;		On exit  : 0/0
  1174 ;;		Unchanged: 0/0
  1175 ;; Data sizes:     COMMON   BANK0   BANK1   BANK3   BANK2
  1176 ;;      Params:         0       0       2       0       0
  1177 ;;      Locals:         0       0       0       0       0
  1178 ;;      Temps:          0       0       4       0       0
  1179 ;;      Totals:         0       0       6       0       0
  1180 ;;Total ram usage:        6 bytes
  1181 ;; Hardware stack levels used: 1
  1182 ;; Hardware stack levels required when called: 2
  1183 ;; This function calls:
  1184 ;;		___aldiv
  1185 ;;		___fldiv
  1186 ;;		___flmul
  1187 ;;		___fltol
  1188 ;;		___xxtofl
  1189 ;; This function is called by:
  1190 ;;		_main
  1191 ;; This function uses a non-reentrant model
  1192 ;;
  1193                           
  1194                           
  1195                           ;psect for function _PWM1_Duty
  1196  013E                     _PWM1_Duty:
  1197  013E                     l1548:	
  1198                           ;incstack = 0
  1199                           ; Regs used in _PWM1_Duty: [wreg+status,2+status,0+btemp+1+pclath+cstack]
  1200                           
  1201                           
  1202                           ;PWM.c: 52:         CCP2X = duty & 2;;PWM.c: 53:         CCP2Y = duty & 1;;PWM.c: 54:   
      +                                CCPR2L = duty>>2;
  1203  013E  3004               	movlw	4
  1204  013F  1683               	bsf	3,5	;RP0=1, select bank1
  1205  0140  1303               	bcf	3,6	;RP1=0, select bank1
  1206  0141  0221               	subwf	(PWM1_Duty@duty+1)^(0+128),w
  1207  0142  3000               	movlw	0
  1208  0143  1903               	skipnz
  1209  0144  0220               	subwf	PWM1_Duty@duty^(0+128),w
  1210  0145  1803               	skipnc
  1211  0146  2948               	goto	u2231
  1212  0147  2949               	goto	u2230
  1213  0148                     u2231:
  1214  0148  29FD               	goto	l64
  1215  0149                     u2230:
  1216  0149                     l1550:
  1217                           
  1218                           ;PWM.c: 55:     };PWM.c: 56: }
  1219  0149  0820               	movf	PWM1_Duty@duty^(0+128),w
  1220  014A  1283               	bcf	3,5	;RP0=0, select bank0
  1221  014B  1303               	bcf	3,6	;RP1=0, select bank0
  1222  014C  00A6               	movwf	___xxtofl@val
  1223  014D  1683               	bsf	3,5	;RP0=1, select bank1
  1224  014E  1303               	bcf	3,6	;RP1=0, select bank1
  1225  014F  0821               	movf	(PWM1_Duty@duty+1)^(0+128),w
  1226  0150  1283               	bcf	3,5	;RP0=0, select bank0
  1227  0151  1303               	bcf	3,6	;RP1=0, select bank0
  1228  0152  00A7               	movwf	___xxtofl@val+1
  1229  0153  01A8               	clrf	___xxtofl@val+2
  1230  0154  01A9               	clrf	___xxtofl@val+3
  1231  0155  3000               	movlw	0
  1232  0156  120A  118A  2082  120A  118A  	fcall	___xxtofl
  1233  015B  1283               	bcf	3,5	;RP0=0, select bank0
  1234  015C  1303               	bcf	3,6	;RP1=0, select bank0
  1235  015D  0829               	movf	?___xxtofl+3,w
  1236  015E  00B7               	movwf	___fldiv@b+3
  1237  015F  0828               	movf	?___xxtofl+2,w
  1238  0160  00B6               	movwf	___fldiv@b+2
  1239  0161  0827               	movf	?___xxtofl+1,w
  1240  0162  00B5               	movwf	___fldiv@b+1
  1241  0163  0826               	movf	?___xxtofl,w
  1242  0164  00B4               	movwf	___fldiv@b
  1243  0165  3044               	movlw	68
  1244  0166  00B3               	movwf	___fldiv@a+3
  1245  0167  307F               	movlw	127
  1246  0168  00B2               	movwf	___fldiv@a+2
  1247  0169  30C0               	movlw	192
  1248  016A  00B1               	movwf	___fldiv@a+1
  1249  016B  3000               	movlw	0
  1250  016C  00B0               	movwf	___fldiv@a
  1251  016D  120A  118A  22BE  120A  118A  	fcall	___fldiv
  1252  0172  1283               	bcf	3,5	;RP0=0, select bank0
  1253  0173  1303               	bcf	3,6	;RP1=0, select bank0
  1254  0174  0833               	movf	?___fldiv+3,w
  1255  0175  00D1               	movwf	___flmul@a+3
  1256  0176  0832               	movf	?___fldiv+2,w
  1257  0177  00D0               	movwf	___flmul@a+2
  1258  0178  0831               	movf	?___fldiv+1,w
  1259  0179  00CF               	movwf	___flmul@a+1
  1260  017A  0830               	movf	?___fldiv,w
  1261  017B  00CE               	movwf	___flmul@a
  1262  017C  3001               	movlw	1
  1263  017D  00F7               	movwf	___aldiv@dividend+3
  1264  017E  3031               	movlw	49
  1265  017F  00F6               	movwf	___aldiv@dividend+2
  1266  0180  302D               	movlw	45
  1267  0181  00F5               	movwf	___aldiv@dividend+1
  1268  0182  3000               	movlw	0
  1269  0183  00F4               	movwf	___aldiv@dividend
  1270  0184  1683               	bsf	3,5	;RP0=1, select bank1
  1271  0185  1303               	bcf	3,6	;RP1=0, select bank1
  1272  0186  0826               	movf	_u32TempFrequency^(0+128),w
  1273  0187  00A2               	movwf	??_PWM1_Duty^(0+128)
  1274  0188  0827               	movf	(_u32TempFrequency+1)^(0+128),w
  1275  0189  00A3               	movwf	(??_PWM1_Duty^(0+128)+1)
  1276  018A  0828               	movf	(_u32TempFrequency+2)^(0+128),w
  1277  018B  00A4               	movwf	(??_PWM1_Duty^(0+128)+2)
  1278  018C  0829               	movf	(_u32TempFrequency+3)^(0+128),w
  1279  018D  00A5               	movwf	(??_PWM1_Duty^(0+128)+3)
  1280  018E  3002               	movlw	2
  1281  018F                     u2245:
  1282  018F  1003               	clrc
  1283  0190  0DA2               	rlf	??_PWM1_Duty^(0+128),f
  1284  0191  0DA3               	rlf	(??_PWM1_Duty^(0+128)+1),f
  1285  0192  0DA4               	rlf	(??_PWM1_Duty^(0+128)+2),f
  1286  0193  0DA5               	rlf	(??_PWM1_Duty^(0+128)+3),f
  1287  0194                     u2240:
  1288  0194  3EFF               	addlw	-1
  1289  0195  1D03               	skipz
  1290  0196  298F               	goto	u2245
  1291  0197  0825               	movf	(??_PWM1_Duty+3)^(0+128),w
  1292  0198  00F3               	movwf	___aldiv@divisor+3
  1293  0199  0824               	movf	(??_PWM1_Duty+2)^(0+128),w
  1294  019A  00F2               	movwf	___aldiv@divisor+2
  1295  019B  0823               	movf	(??_PWM1_Duty+1)^(0+128),w
  1296  019C  00F1               	movwf	___aldiv@divisor+1
  1297  019D  0822               	movf	??_PWM1_Duty^(0+128),w
  1298  019E  00F0               	movwf	___aldiv@divisor
  1299  019F  120A  158A  2763  120A  118A  	fcall	___aldiv
  1300  01A4  0873               	movf	?___aldiv+3,w
  1301  01A5  1283               	bcf	3,5	;RP0=0, select bank0
  1302  01A6  1303               	bcf	3,6	;RP1=0, select bank0
  1303  01A7  00A9               	movwf	___xxtofl@val+3
  1304  01A8  0872               	movf	?___aldiv+2,w
  1305  01A9  00A8               	movwf	___xxtofl@val+2
  1306  01AA  0871               	movf	?___aldiv+1,w
  1307  01AB  00A7               	movwf	___xxtofl@val+1
  1308  01AC  0870               	movf	?___aldiv,w
  1309  01AD  00A6               	movwf	___xxtofl@val
  1310  01AE  3001               	movlw	1
  1311  01AF  120A  118A  2082  120A  118A  	fcall	___xxtofl
  1312  01B4  1283               	bcf	3,5	;RP0=0, select bank0
  1313  01B5  1303               	bcf	3,6	;RP1=0, select bank0
  1314  01B6  0829               	movf	?___xxtofl+3,w
  1315  01B7  00CD               	movwf	___flmul@b+3
  1316  01B8  0828               	movf	?___xxtofl+2,w
  1317  01B9  00CC               	movwf	___flmul@b+2
  1318  01BA  0827               	movf	?___xxtofl+1,w
  1319  01BB  00CB               	movwf	___flmul@b+1
  1320  01BC  0826               	movf	?___xxtofl,w
  1321  01BD  00CA               	movwf	___flmul@b
  1322  01BE  120A  118A  249B  120A  118A  	fcall	___flmul
  1323  01C3  1283               	bcf	3,5	;RP0=0, select bank0
  1324  01C4  1303               	bcf	3,6	;RP1=0, select bank0
  1325  01C5  084D               	movf	?___flmul+3,w
  1326  01C6  00E7               	movwf	___fltol@f1+3
  1327  01C7  084C               	movf	?___flmul+2,w
  1328  01C8  00E6               	movwf	___fltol@f1+2
  1329  01C9  084B               	movf	?___flmul+1,w
  1330  01CA  00E5               	movwf	___fltol@f1+1
  1331  01CB  084A               	movf	?___flmul,w
  1332  01CC  00E4               	movwf	___fltol@f1
  1333  01CD  120A  118A  2006  120A  118A  	fcall	___fltol
  1334  01D2  1283               	bcf	3,5	;RP0=0, select bank0
  1335  01D3  1303               	bcf	3,6	;RP1=0, select bank0
  1336  01D4  0865               	movf	?___fltol+1,w
  1337  01D5  1683               	bsf	3,5	;RP0=1, select bank1
  1338  01D6  1303               	bcf	3,6	;RP1=0, select bank1
  1339  01D7  00A1               	movwf	(PWM1_Duty@duty+1)^(0+128)
  1340  01D8  1283               	bcf	3,5	;RP0=0, select bank0
  1341  01D9  1303               	bcf	3,6	;RP1=0, select bank0
  1342  01DA  0864               	movf	?___fltol,w
  1343  01DB  1683               	bsf	3,5	;RP0=1, select bank1
  1344  01DC  1303               	bcf	3,6	;RP1=0, select bank1
  1345  01DD  00A0               	movwf	PWM1_Duty@duty^(0+128)
  1346  01DE                     l1552:
  1347                           
  1348                           ;PWM.c: 57: 
  1349  01DE  1283               	bcf	3,5	;RP0=0, select bank0
  1350  01DF  1303               	bcf	3,6	;RP1=0, select bank0
  1351  01E0  1297               	bcf	23,5	;volatile
  1352  01E1                     l1554:
  1353                           
  1354                           ;PWM.c: 58: void PWM1_Start(void)
  1355  01E1  1683               	bsf	3,5	;RP0=1, select bank1
  1356  01E2  1303               	bcf	3,6	;RP1=0, select bank1
  1357  01E3  1820               	btfsc	PWM1_Duty@duty^(0+128),0
  1358  01E4  29E6               	goto	u2251
  1359  01E5  29EA               	goto	u2250
  1360  01E6                     u2251:
  1361  01E6  1283               	bcf	3,5	;RP0=0, select bank0
  1362  01E7  1303               	bcf	3,6	;RP1=0, select bank0
  1363  01E8  1617               	bsf	23,4	;volatile
  1364  01E9  29ED               	goto	u2264
  1365  01EA                     u2250:
  1366  01EA  1283               	bcf	3,5	;RP0=0, select bank0
  1367  01EB  1303               	bcf	3,6	;RP1=0, select bank0
  1368  01EC  1217               	bcf	23,4	;volatile
  1369  01ED                     u2264:
  1370  01ED                     l1556:
  1371                           
  1372                           ;PWM.c: 59: {
  1373  01ED  1683               	bsf	3,5	;RP0=1, select bank1
  1374  01EE  1303               	bcf	3,6	;RP1=0, select bank1
  1375  01EF  0821               	movf	(PWM1_Duty@duty+1)^(0+128),w
  1376  01F0  00A3               	movwf	(??_PWM1_Duty^(0+128)+1)
  1377  01F1  0820               	movf	PWM1_Duty@duty^(0+128),w
  1378  01F2  00A2               	movwf	??_PWM1_Duty^(0+128)
  1379  01F3  1003               	clrc
  1380  01F4  0CA3               	rrf	(??_PWM1_Duty^(0+128)+1),f
  1381  01F5  0CA2               	rrf	??_PWM1_Duty^(0+128),f
  1382  01F6  1003               	clrc
  1383  01F7  0CA3               	rrf	(??_PWM1_Duty^(0+128)+1),f
  1384  01F8  0CA2               	rrf	??_PWM1_Duty^(0+128),f
  1385  01F9  0822               	movf	??_PWM1_Duty^(0+128),w
  1386  01FA  1283               	bcf	3,5	;RP0=0, select bank0
  1387  01FB  1303               	bcf	3,6	;RP1=0, select bank0
  1388  01FC  0095               	movwf	21	;volatile
  1389  01FD                     l64:
  1390  01FD  0008               	return
  1391  01FE                     __end_of_PWM1_Duty:
  1392                           
  1393                           	psect	text7
  1394  0082                     __ptext7:	
  1395 ;; *************** function ___xxtofl *****************
  1396 ;; Defined at:
  1397 ;;		line 10 in file "C:\Program Files\Microchip\xc8\v2.32\pic\sources\c90\common\xxtofl.c"
  1398 ;; Parameters:    Size  Location     Type
  1399 ;;  sign            1    wreg     unsigned char 
  1400 ;;  val             4    6[BANK0 ] long 
  1401 ;; Auto vars:     Size  Location     Type
  1402 ;;  sign            1   10[BANK0 ] unsigned char 
  1403 ;;  arg             4   12[BANK0 ] unsigned long 
  1404 ;;  exp             1   11[BANK0 ] unsigned char 
  1405 ;; Return value:  Size  Location     Type
  1406 ;;                  4    6[BANK0 ] unsigned char 
  1407 ;; Registers used:
  1408 ;;		wreg, status,2, status,0
  1409 ;; Tracked objects:
  1410 ;;		On entry : 0/0
  1411 ;;		On exit  : 0/0
  1412 ;;		Unchanged: 0/0
  1413 ;; Data sizes:     COMMON   BANK0   BANK1   BANK3   BANK2
  1414 ;;      Params:         0       4       0       0       0
  1415 ;;      Locals:         0       6       0       0       0
  1416 ;;      Temps:          4       0       0       0       0
  1417 ;;      Totals:         4      10       0       0       0
  1418 ;;Total ram usage:       14 bytes
  1419 ;; Hardware stack levels used: 1
  1420 ;; This function calls:
  1421 ;;		Nothing
  1422 ;; This function is called by:
  1423 ;;		_PWM1_Duty
  1424 ;;		_PWM2_Duty
  1425 ;; This function uses a non-reentrant model
  1426 ;;
  1427                           
  1428                           
  1429                           ;psect for function ___xxtofl
  1430  0082                     ___xxtofl:
  1431                           
  1432                           ;incstack = 0
  1433                           ; Regs used in ___xxtofl: [wreg+status,2+status,0]
  1434                           ;___xxtofl@sign stored from wreg
  1435  0082  1283               	bcf	3,5	;RP0=0, select bank0
  1436  0083  1303               	bcf	3,6	;RP1=0, select bank0
  1437  0084  00AA               	movwf	___xxtofl@sign
  1438  0085                     l1496:
  1439  0085  082A               	movf	___xxtofl@sign,w
  1440  0086  1903               	btfsc	3,2
  1441  0087  2889               	goto	u2051
  1442  0088  288A               	goto	u2050
  1443  0089                     u2051:
  1444  0089  289E               	goto	l1502
  1445  008A                     u2050:
  1446  008A                     l1498:
  1447  008A  1FA9               	btfss	___xxtofl@val+3,7
  1448  008B  288D               	goto	u2061
  1449  008C  288E               	goto	u2060
  1450  008D                     u2061:
  1451  008D  289E               	goto	l1502
  1452  008E                     u2060:
  1453  008E                     l1500:
  1454  008E  0926               	comf	___xxtofl@val,w
  1455  008F  00AC               	movwf	___xxtofl@arg
  1456  0090  0927               	comf	___xxtofl@val+1,w
  1457  0091  00AD               	movwf	___xxtofl@arg+1
  1458  0092  0928               	comf	___xxtofl@val+2,w
  1459  0093  00AE               	movwf	___xxtofl@arg+2
  1460  0094  0929               	comf	___xxtofl@val+3,w
  1461  0095  00AF               	movwf	___xxtofl@arg+3
  1462  0096  0AAC               	incf	___xxtofl@arg,f
  1463  0097  1903               	skipnz
  1464  0098  0AAD               	incf	___xxtofl@arg+1,f
  1465  0099  1903               	skipnz
  1466  009A  0AAE               	incf	___xxtofl@arg+2,f
  1467  009B  1903               	skipnz
  1468  009C  0AAF               	incf	___xxtofl@arg+3,f
  1469  009D  28A6               	goto	l593
  1470  009E                     l1502:
  1471  009E  0829               	movf	___xxtofl@val+3,w
  1472  009F  00AF               	movwf	___xxtofl@arg+3
  1473  00A0  0828               	movf	___xxtofl@val+2,w
  1474  00A1  00AE               	movwf	___xxtofl@arg+2
  1475  00A2  0827               	movf	___xxtofl@val+1,w
  1476  00A3  00AD               	movwf	___xxtofl@arg+1
  1477  00A4  0826               	movf	___xxtofl@val,w
  1478  00A5  00AC               	movwf	___xxtofl@arg
  1479  00A6                     l593:
  1480  00A6  0829               	movf	___xxtofl@val+3,w
  1481  00A7  0428               	iorwf	___xxtofl@val+2,w
  1482  00A8  0427               	iorwf	___xxtofl@val+1,w
  1483  00A9  0426               	iorwf	___xxtofl@val,w
  1484  00AA  1D03               	skipz
  1485  00AB  28AD               	goto	u2071
  1486  00AC  28AE               	goto	u2070
  1487  00AD                     u2071:
  1488  00AD  28B7               	goto	l1508
  1489  00AE                     u2070:
  1490  00AE                     l1504:
  1491  00AE  3000               	movlw	0
  1492  00AF  00A9               	movwf	?___xxtofl+3
  1493  00B0  3000               	movlw	0
  1494  00B1  00A8               	movwf	?___xxtofl+2
  1495  00B2  3000               	movlw	0
  1496  00B3  00A7               	movwf	?___xxtofl+1
  1497  00B4  3000               	movlw	0
  1498  00B5  00A6               	movwf	?___xxtofl
  1499  00B6  293D               	goto	l595
  1500  00B7                     l1508:
  1501  00B7  3096               	movlw	150
  1502  00B8  00F9               	movwf	??___xxtofl
  1503  00B9  0879               	movf	??___xxtofl,w
  1504  00BA  00AB               	movwf	___xxtofl@exp
  1505  00BB  28C9               	goto	l1512
  1506  00BC                     l1510:
  1507  00BC  3001               	movlw	1
  1508  00BD  00F9               	movwf	??___xxtofl
  1509  00BE  0879               	movf	??___xxtofl,w
  1510  00BF  07AB               	addwf	___xxtofl@exp,f
  1511  00C0  3001               	movlw	1
  1512  00C1                     u2085:
  1513  00C1  1003               	clrc
  1514  00C2  0CAF               	rrf	___xxtofl@arg+3,f
  1515  00C3  0CAE               	rrf	___xxtofl@arg+2,f
  1516  00C4  0CAD               	rrf	___xxtofl@arg+1,f
  1517  00C5  0CAC               	rrf	___xxtofl@arg,f
  1518  00C6  3EFF               	addlw	-1
  1519  00C7  1D03               	skipz
  1520  00C8  28C1               	goto	u2085
  1521  00C9                     l1512:
  1522  00C9  30FE               	movlw	254
  1523  00CA  052F               	andwf	___xxtofl@arg+3,w
  1524  00CB  1D03               	btfss	3,2
  1525  00CC  28CE               	goto	u2091
  1526  00CD  28CF               	goto	u2090
  1527  00CE                     u2091:
  1528  00CE  28BC               	goto	l1510
  1529  00CF                     u2090:
  1530  00CF  28EB               	goto	l599
  1531  00D0                     l1514:
  1532  00D0  3001               	movlw	1
  1533  00D1  00F9               	movwf	??___xxtofl
  1534  00D2  0879               	movf	??___xxtofl,w
  1535  00D3  07AB               	addwf	___xxtofl@exp,f
  1536  00D4                     l1516:
  1537  00D4  3001               	movlw	1
  1538  00D5  07AC               	addwf	___xxtofl@arg,f
  1539  00D6  3000               	movlw	0
  1540  00D7  1803               	skipnc
  1541  00D8  3001               	movlw	1
  1542  00D9  07AD               	addwf	___xxtofl@arg+1,f
  1543  00DA  3000               	movlw	0
  1544  00DB  1803               	skipnc
  1545  00DC  3001               	movlw	1
  1546  00DD  07AE               	addwf	___xxtofl@arg+2,f
  1547  00DE  3000               	movlw	0
  1548  00DF  1803               	skipnc
  1549  00E0  3001               	movlw	1
  1550  00E1  07AF               	addwf	___xxtofl@arg+3,f
  1551  00E2                     l1518:
  1552  00E2  3001               	movlw	1
  1553  00E3                     u2105:
  1554  00E3  1003               	clrc
  1555  00E4  0CAF               	rrf	___xxtofl@arg+3,f
  1556  00E5  0CAE               	rrf	___xxtofl@arg+2,f
  1557  00E6  0CAD               	rrf	___xxtofl@arg+1,f
  1558  00E7  0CAC               	rrf	___xxtofl@arg,f
  1559  00E8  3EFF               	addlw	-1
  1560  00E9  1D03               	skipz
  1561  00EA  28E3               	goto	u2105
  1562  00EB                     l599:
  1563  00EB  30FF               	movlw	255
  1564  00EC  052F               	andwf	___xxtofl@arg+3,w
  1565  00ED  1D03               	btfss	3,2
  1566  00EE  28F0               	goto	u2111
  1567  00EF  28F1               	goto	u2110
  1568  00F0                     u2111:
  1569  00F0  28D0               	goto	l1514
  1570  00F1                     u2110:
  1571  00F1  28FD               	goto	l1522
  1572  00F2                     l1520:
  1573  00F2  3001               	movlw	1
  1574  00F3  02AB               	subwf	___xxtofl@exp,f
  1575  00F4  3001               	movlw	1
  1576  00F5  00F9               	movwf	??___xxtofl
  1577  00F6                     u2125:
  1578  00F6  1003               	clrc
  1579  00F7  0DAC               	rlf	___xxtofl@arg,f
  1580  00F8  0DAD               	rlf	___xxtofl@arg+1,f
  1581  00F9  0DAE               	rlf	___xxtofl@arg+2,f
  1582  00FA  0DAF               	rlf	___xxtofl@arg+3,f
  1583  00FB  0BF9               	decfsz	??___xxtofl,f
  1584  00FC  28F6               	goto	u2125
  1585  00FD                     l1522:
  1586  00FD  1BAE               	btfsc	___xxtofl@arg+2,7
  1587  00FE  2900               	goto	u2131
  1588  00FF  2901               	goto	u2130
  1589  0100                     u2131:
  1590  0100  2907               	goto	l606
  1591  0101                     u2130:
  1592  0101                     l1524:
  1593  0101  3002               	movlw	2
  1594  0102  022B               	subwf	___xxtofl@exp,w
  1595  0103  1803               	skipnc
  1596  0104  2906               	goto	u2141
  1597  0105  2907               	goto	u2140
  1598  0106                     u2141:
  1599  0106  28F2               	goto	l1520
  1600  0107                     u2140:
  1601  0107                     l606:
  1602  0107  182B               	btfsc	___xxtofl@exp,0
  1603  0108  290A               	goto	u2151
  1604  0109  290B               	goto	u2150
  1605  010A                     u2151:
  1606  010A  2913               	goto	l607
  1607  010B                     u2150:
  1608  010B                     l1526:
  1609  010B  30FF               	movlw	255
  1610  010C  05AC               	andwf	___xxtofl@arg,f
  1611  010D  30FF               	movlw	255
  1612  010E  05AD               	andwf	___xxtofl@arg+1,f
  1613  010F  307F               	movlw	127
  1614  0110  05AE               	andwf	___xxtofl@arg+2,f
  1615  0111  30FF               	movlw	255
  1616  0112  05AF               	andwf	___xxtofl@arg+3,f
  1617  0113                     l607:
  1618  0113  1003               	clrc
  1619  0114  0CAB               	rrf	___xxtofl@exp,f
  1620  0115                     l1528:
  1621  0115  082B               	movf	___xxtofl@exp,w
  1622  0116  00F9               	movwf	??___xxtofl
  1623  0117  01FA               	clrf	??___xxtofl+1
  1624  0118  01FB               	clrf	??___xxtofl+2
  1625  0119  01FC               	clrf	??___xxtofl+3
  1626  011A  3018               	movlw	24
  1627  011B                     u2165:
  1628  011B  1003               	clrc
  1629  011C  0DF9               	rlf	??___xxtofl,f
  1630  011D  0DFA               	rlf	??___xxtofl+1,f
  1631  011E  0DFB               	rlf	??___xxtofl+2,f
  1632  011F  0DFC               	rlf	??___xxtofl+3,f
  1633  0120                     u2160:
  1634  0120  3EFF               	addlw	-1
  1635  0121  1D03               	skipz
  1636  0122  291B               	goto	u2165
  1637  0123  0879               	movf	??___xxtofl,w
  1638  0124  04AC               	iorwf	___xxtofl@arg,f
  1639  0125  087A               	movf	??___xxtofl+1,w
  1640  0126  04AD               	iorwf	___xxtofl@arg+1,f
  1641  0127  087B               	movf	??___xxtofl+2,w
  1642  0128  04AE               	iorwf	___xxtofl@arg+2,f
  1643  0129  087C               	movf	??___xxtofl+3,w
  1644  012A  04AF               	iorwf	___xxtofl@arg+3,f
  1645  012B                     l1530:
  1646  012B  082A               	movf	___xxtofl@sign,w
  1647  012C  1903               	btfsc	3,2
  1648  012D  292F               	goto	u2171
  1649  012E  2930               	goto	u2170
  1650  012F                     u2171:
  1651  012F  2935               	goto	l1536
  1652  0130                     u2170:
  1653  0130                     l1532:
  1654  0130  1FA9               	btfss	___xxtofl@val+3,7
  1655  0131  2933               	goto	u2181
  1656  0132  2934               	goto	u2180
  1657  0133                     u2181:
  1658  0133  2935               	goto	l1536
  1659  0134                     u2180:
  1660  0134                     l1534:
  1661  0134  17AF               	bsf	___xxtofl@arg+3,7
  1662  0135                     l1536:
  1663  0135  082F               	movf	___xxtofl@arg+3,w
  1664  0136  00A9               	movwf	?___xxtofl+3
  1665  0137  082E               	movf	___xxtofl@arg+2,w
  1666  0138  00A8               	movwf	?___xxtofl+2
  1667  0139  082D               	movf	___xxtofl@arg+1,w
  1668  013A  00A7               	movwf	?___xxtofl+1
  1669  013B  082C               	movf	___xxtofl@arg,w
  1670  013C  00A6               	movwf	?___xxtofl
  1671  013D                     l595:
  1672  013D  0008               	return
  1673  013E                     __end_of___xxtofl:
  1674                           
  1675                           	psect	text8
  1676  0006                     __ptext8:	
  1677 ;; *************** function ___fltol *****************
  1678 ;; Defined at:
  1679 ;;		line 43 in file "C:\Program Files\Microchip\xc8\v2.32\pic\sources\c90\common\fltol.c"
  1680 ;; Parameters:    Size  Location     Type
  1681 ;;  f1              4   68[BANK0 ] unsigned char 
  1682 ;; Auto vars:     Size  Location     Type
  1683 ;;  exp1            1   78[BANK0 ] unsigned char 
  1684 ;;  sign1           1   77[BANK0 ] unsigned char 
  1685 ;; Return value:  Size  Location     Type
  1686 ;;                  4   68[BANK0 ] long 
  1687 ;; Registers used:
  1688 ;;		wreg, status,2, status,0
  1689 ;; Tracked objects:
  1690 ;;		On entry : 0/0
  1691 ;;		On exit  : 0/0
  1692 ;;		Unchanged: 0/0
  1693 ;; Data sizes:     COMMON   BANK0   BANK1   BANK3   BANK2
  1694 ;;      Params:         0       4       0       0       0
  1695 ;;      Locals:         0       2       0       0       0
  1696 ;;      Temps:          0       5       0       0       0
  1697 ;;      Totals:         0      11       0       0       0
  1698 ;;Total ram usage:       11 bytes
  1699 ;; Hardware stack levels used: 1
  1700 ;; This function calls:
  1701 ;;		Nothing
  1702 ;; This function is called by:
  1703 ;;		_PWM1_Duty
  1704 ;;		_PWM2_Duty
  1705 ;; This function uses a non-reentrant model
  1706 ;;
  1707                           
  1708                           
  1709                           ;psect for function ___fltol
  1710  0006                     ___fltol:
  1711  0006                     l1178:	
  1712                           ;incstack = 0
  1713                           ; Regs used in ___fltol: [wreg+status,2+status,0]
  1714                           
  1715  0006  1003               	clrc
  1716  0007  1283               	bcf	3,5	;RP0=0, select bank0
  1717  0008  1303               	bcf	3,6	;RP1=0, select bank0
  1718  0009  0D66               	rlf	___fltol@f1+2,w
  1719  000A  0D67               	rlf	___fltol@f1+3,w
  1720  000B  00E8               	movwf	??___fltol
  1721  000C  0868               	movf	??___fltol,w
  1722  000D  00EE               	movwf	___fltol@exp1
  1723  000E  086E               	movf	___fltol@exp1,w
  1724  000F  1D03               	btfss	3,2
  1725  0010  2812               	goto	u1291
  1726  0011  2813               	goto	u1290
  1727  0012                     u1291:
  1728  0012  281C               	goto	l1184
  1729  0013                     u1290:
  1730  0013                     l1180:
  1731  0013  3000               	movlw	0
  1732  0014  00E7               	movwf	?___fltol+3
  1733  0015  3000               	movlw	0
  1734  0016  00E6               	movwf	?___fltol+2
  1735  0017  3000               	movlw	0
  1736  0018  00E5               	movwf	?___fltol+1
  1737  0019  3000               	movlw	0
  1738  001A  00E4               	movwf	?___fltol
  1739  001B  2881               	goto	l346
  1740  001C                     l1184:
  1741  001C  0864               	movf	___fltol@f1,w
  1742  001D  00E8               	movwf	??___fltol
  1743  001E  0865               	movf	___fltol@f1+1,w
  1744  001F  00E9               	movwf	??___fltol+1
  1745  0020  0866               	movf	___fltol@f1+2,w
  1746  0021  00EA               	movwf	??___fltol+2
  1747  0022  0867               	movf	___fltol@f1+3,w
  1748  0023  00EB               	movwf	??___fltol+3
  1749  0024  301F               	movlw	31
  1750  0025                     u1305:
  1751  0025  1003               	clrc
  1752  0026  0CEB               	rrf	??___fltol+3,f
  1753  0027  0CEA               	rrf	??___fltol+2,f
  1754  0028  0CE9               	rrf	??___fltol+1,f
  1755  0029  0CE8               	rrf	??___fltol,f
  1756  002A                     u1300:
  1757  002A  3EFF               	addlw	-1
  1758  002B  1D03               	skipz
  1759  002C  2825               	goto	u1305
  1760  002D  0868               	movf	??___fltol,w
  1761  002E  00EC               	movwf	??___fltol+4
  1762  002F  086C               	movf	??___fltol+4,w
  1763  0030  00ED               	movwf	___fltol@sign1
  1764  0031                     l1186:
  1765  0031  17E6               	bsf	___fltol@f1+2,7
  1766  0032                     l1188:
  1767  0032  30FF               	movlw	255
  1768  0033  05E4               	andwf	___fltol@f1,f
  1769  0034  30FF               	movlw	255
  1770  0035  05E5               	andwf	___fltol@f1+1,f
  1771  0036  30FF               	movlw	255
  1772  0037  05E6               	andwf	___fltol@f1+2,f
  1773  0038  3000               	movlw	0
  1774  0039  05E7               	andwf	___fltol@f1+3,f
  1775  003A                     l1190:
  1776  003A  3096               	movlw	150
  1777  003B  02EE               	subwf	___fltol@exp1,f
  1778  003C                     l1192:
  1779  003C  1FEE               	btfss	___fltol@exp1,7
  1780  003D  283F               	goto	u1311
  1781  003E  2840               	goto	u1310
  1782  003F                     u1311:
  1783  003F  285A               	goto	l1202
  1784  0040                     u1310:
  1785  0040                     l1194:
  1786  0040  086E               	movf	___fltol@exp1,w
  1787  0041  3A80               	xorlw	128
  1788  0042  3E97               	addlw	151
  1789  0043  1803               	skipnc
  1790  0044  2846               	goto	u1321
  1791  0045  2847               	goto	u1320
  1792  0046                     u1321:
  1793  0046  2848               	goto	l1200
  1794  0047                     u1320:
  1795  0047  2813               	goto	l1180
  1796  0048                     l1200:
  1797  0048  3001               	movlw	1
  1798  0049                     u1335:
  1799  0049  1003               	clrc
  1800  004A  0CE7               	rrf	___fltol@f1+3,f
  1801  004B  0CE6               	rrf	___fltol@f1+2,f
  1802  004C  0CE5               	rrf	___fltol@f1+1,f
  1803  004D  0CE4               	rrf	___fltol@f1,f
  1804  004E  3EFF               	addlw	-1
  1805  004F  1D03               	skipz
  1806  0050  2849               	goto	u1335
  1807  0051  3001               	movlw	1
  1808  0052  00E8               	movwf	??___fltol
  1809  0053  0868               	movf	??___fltol,w
  1810  0054  07EE               	addwf	___fltol@exp1,f
  1811  0055  1D03               	btfss	3,2
  1812  0056  2858               	goto	u1341
  1813  0057  2859               	goto	u1340
  1814  0058                     u1341:
  1815  0058  2848               	goto	l1200
  1816  0059                     u1340:
  1817  0059  2871               	goto	l1210
  1818  005A                     l1202:
  1819  005A  3020               	movlw	32
  1820  005B  026E               	subwf	___fltol@exp1,w
  1821  005C  1C03               	skipc
  1822  005D  285F               	goto	u1351
  1823  005E  2860               	goto	u1350
  1824  005F                     u1351:
  1825  005F  286C               	goto	l353
  1826  0060                     u1350:
  1827  0060  2813               	goto	l1180
  1828  0061                     l1208:
  1829  0061  3001               	movlw	1
  1830  0062  00E8               	movwf	??___fltol
  1831  0063                     u1365:
  1832  0063  1003               	clrc
  1833  0064  0DE4               	rlf	___fltol@f1,f
  1834  0065  0DE5               	rlf	___fltol@f1+1,f
  1835  0066  0DE6               	rlf	___fltol@f1+2,f
  1836  0067  0DE7               	rlf	___fltol@f1+3,f
  1837  0068  0BE8               	decfsz	??___fltol,f
  1838  0069  2863               	goto	u1365
  1839  006A  3001               	movlw	1
  1840  006B  02EE               	subwf	___fltol@exp1,f
  1841  006C                     l353:
  1842  006C  086E               	movf	___fltol@exp1,w
  1843  006D  1D03               	btfss	3,2
  1844  006E  2870               	goto	u1371
  1845  006F  2871               	goto	u1370
  1846  0070                     u1371:
  1847  0070  2861               	goto	l1208
  1848  0071                     u1370:
  1849  0071                     l1210:
  1850  0071  086D               	movf	___fltol@sign1,w
  1851  0072  1903               	btfsc	3,2
  1852  0073  2875               	goto	u1381
  1853  0074  2876               	goto	u1380
  1854  0075                     u1381:
  1855  0075  2881               	goto	l356
  1856  0076                     u1380:
  1857  0076                     l1212:
  1858  0076  09E4               	comf	___fltol@f1,f
  1859  0077  09E5               	comf	___fltol@f1+1,f
  1860  0078  09E6               	comf	___fltol@f1+2,f
  1861  0079  09E7               	comf	___fltol@f1+3,f
  1862  007A  0AE4               	incf	___fltol@f1,f
  1863  007B  1903               	skipnz
  1864  007C  0AE5               	incf	___fltol@f1+1,f
  1865  007D  1903               	skipnz
  1866  007E  0AE6               	incf	___fltol@f1+2,f
  1867  007F  1903               	skipnz
  1868  0080  0AE7               	incf	___fltol@f1+3,f
  1869  0081                     l356:
  1870  0081                     l346:
  1871  0081  0008               	return
  1872  0082                     __end_of___fltol:
  1873                           
  1874                           	psect	text9
  1875  049B                     __ptext9:	
  1876 ;; *************** function ___flmul *****************
  1877 ;; Defined at:
  1878 ;;		line 8 in file "C:\Program Files\Microchip\xc8\v2.32\pic\sources\c90\common\sprcmul.c"
  1879 ;; Parameters:    Size  Location     Type
  1880 ;;  b               4   42[BANK0 ] long 
  1881 ;;  a               4   46[BANK0 ] long 
  1882 ;; Auto vars:     Size  Location     Type
  1883 ;;  prod            4   62[BANK0 ] struct .
  1884 ;;  grs             4   56[BANK0 ] unsigned long 
  1885 ;;  temp            2   66[BANK0 ] struct .
  1886 ;;  bexp            1   61[BANK0 ] unsigned char 
  1887 ;;  aexp            1   60[BANK0 ] unsigned char 
  1888 ;;  sign            1   55[BANK0 ] unsigned char 
  1889 ;; Return value:  Size  Location     Type
  1890 ;;                  4   42[BANK0 ] unsigned char 
  1891 ;; Registers used:
  1892 ;;		wreg, status,2, status,0, btemp+1, pclath, cstack
  1893 ;; Tracked objects:
  1894 ;;		On entry : 0/0
  1895 ;;		On exit  : 0/0
  1896 ;;		Unchanged: 0/0
  1897 ;; Data sizes:     COMMON   BANK0   BANK1   BANK3   BANK2
  1898 ;;      Params:         0       8       0       0       0
  1899 ;;      Locals:         0      13       0       0       0
  1900 ;;      Temps:          0       5       0       0       0
  1901 ;;      Totals:         0      26       0       0       0
  1902 ;;Total ram usage:       26 bytes
  1903 ;; Hardware stack levels used: 1
  1904 ;; Hardware stack levels required when called: 1
  1905 ;; This function calls:
  1906 ;;		__Umul8_16
  1907 ;; This function is called by:
  1908 ;;		_PWM1_Duty
  1909 ;;		_PWM2_Duty
  1910 ;; This function uses a non-reentrant model
  1911 ;;
  1912                           
  1913                           
  1914                           ;psect for function ___flmul
  1915  049B                     ___flmul:
  1916  049B                     l1356:	
  1917                           ;incstack = 0
  1918                           ; Regs used in ___flmul: [wreg+status,2+status,0+btemp+1+pclath+cstack]
  1919                           
  1920  049B  1283               	bcf	3,5	;RP0=0, select bank0
  1921  049C  1303               	bcf	3,6	;RP1=0, select bank0
  1922  049D  084D               	movf	___flmul@b+3,w
  1923  049E  3980               	andlw	128
  1924  049F  00D2               	movwf	??___flmul
  1925  04A0  0852               	movf	??___flmul,w
  1926  04A1  00D7               	movwf	___flmul@sign
  1927  04A2                     l1358:
  1928  04A2  084D               	movf	___flmul@b+3,w
  1929  04A3  00D2               	movwf	??___flmul
  1930  04A4  0752               	addwf	??___flmul,w
  1931  04A5  00D3               	movwf	??___flmul+1
  1932  04A6  0853               	movf	??___flmul+1,w
  1933  04A7  00DD               	movwf	___flmul@bexp
  1934  04A8                     l1360:
  1935  04A8  1FCC               	btfss	___flmul@b+2,7
  1936  04A9  2CAB               	goto	u1681
  1937  04AA  2CAC               	goto	u1680
  1938  04AB                     u1681:
  1939  04AB  2CAD               	goto	l1364
  1940  04AC                     u1680:
  1941  04AC                     l1362:
  1942  04AC  145D               	bsf	___flmul@bexp,0
  1943  04AD                     l1364:
  1944  04AD  085D               	movf	___flmul@bexp,w
  1945  04AE  1903               	btfsc	3,2
  1946  04AF  2CB1               	goto	u1691
  1947  04B0  2CB2               	goto	u1690
  1948  04B1                     u1691:
  1949  04B1  2CC1               	goto	l1372
  1950  04B2                     u1690:
  1951  04B2                     l1366:
  1952  04B2  0A5D               	incf	___flmul@bexp,w
  1953  04B3  1D03               	btfss	3,2
  1954  04B4  2CB6               	goto	u1701
  1955  04B5  2CB7               	goto	u1700
  1956  04B6                     u1701:
  1957  04B6  2CBF               	goto	l1370
  1958  04B7                     u1700:
  1959  04B7                     l1368:
  1960  04B7  3000               	movlw	0
  1961  04B8  00CD               	movwf	___flmul@b+3
  1962  04B9  3000               	movlw	0
  1963  04BA  00CC               	movwf	___flmul@b+2
  1964  04BB  3000               	movlw	0
  1965  04BC  00CB               	movwf	___flmul@b+1
  1966  04BD  3000               	movlw	0
  1967  04BE  00CA               	movwf	___flmul@b
  1968  04BF                     l1370:
  1969  04BF  17CC               	bsf	___flmul@b+2,7
  1970  04C0  2CC9               	goto	l1374
  1971  04C1                     l1372:
  1972  04C1  3000               	movlw	0
  1973  04C2  00CD               	movwf	___flmul@b+3
  1974  04C3  3000               	movlw	0
  1975  04C4  00CC               	movwf	___flmul@b+2
  1976  04C5  3000               	movlw	0
  1977  04C6  00CB               	movwf	___flmul@b+1
  1978  04C7  3000               	movlw	0
  1979  04C8  00CA               	movwf	___flmul@b
  1980  04C9                     l1374:
  1981  04C9  0851               	movf	___flmul@a+3,w
  1982  04CA  3980               	andlw	128
  1983  04CB  00D2               	movwf	??___flmul
  1984  04CC  0852               	movf	??___flmul,w
  1985  04CD  06D7               	xorwf	___flmul@sign,f
  1986  04CE                     l1376:
  1987  04CE  0851               	movf	___flmul@a+3,w
  1988  04CF  00D2               	movwf	??___flmul
  1989  04D0  0752               	addwf	??___flmul,w
  1990  04D1  00D3               	movwf	??___flmul+1
  1991  04D2  0853               	movf	??___flmul+1,w
  1992  04D3  00DC               	movwf	___flmul@aexp
  1993  04D4                     l1378:
  1994  04D4  1FD0               	btfss	___flmul@a+2,7
  1995  04D5  2CD7               	goto	u1711
  1996  04D6  2CD8               	goto	u1710
  1997  04D7                     u1711:
  1998  04D7  2CD9               	goto	l1382
  1999  04D8                     u1710:
  2000  04D8                     l1380:
  2001  04D8  145C               	bsf	___flmul@aexp,0
  2002  04D9                     l1382:
  2003  04D9  085C               	movf	___flmul@aexp,w
  2004  04DA  1903               	btfsc	3,2
  2005  04DB  2CDD               	goto	u1721
  2006  04DC  2CDE               	goto	u1720
  2007  04DD                     u1721:
  2008  04DD  2CED               	goto	l1390
  2009  04DE                     u1720:
  2010  04DE                     l1384:
  2011  04DE  0A5C               	incf	___flmul@aexp,w
  2012  04DF  1D03               	btfss	3,2
  2013  04E0  2CE2               	goto	u1731
  2014  04E1  2CE3               	goto	u1730
  2015  04E2                     u1731:
  2016  04E2  2CEB               	goto	l1388
  2017  04E3                     u1730:
  2018  04E3                     l1386:
  2019  04E3  3000               	movlw	0
  2020  04E4  00D1               	movwf	___flmul@a+3
  2021  04E5  3000               	movlw	0
  2022  04E6  00D0               	movwf	___flmul@a+2
  2023  04E7  3000               	movlw	0
  2024  04E8  00CF               	movwf	___flmul@a+1
  2025  04E9  3000               	movlw	0
  2026  04EA  00CE               	movwf	___flmul@a
  2027  04EB                     l1388:
  2028  04EB  17D0               	bsf	___flmul@a+2,7
  2029  04EC  2CF5               	goto	l1392
  2030  04ED                     l1390:
  2031  04ED  3000               	movlw	0
  2032  04EE  00D1               	movwf	___flmul@a+3
  2033  04EF  3000               	movlw	0
  2034  04F0  00D0               	movwf	___flmul@a+2
  2035  04F1  3000               	movlw	0
  2036  04F2  00CF               	movwf	___flmul@a+1
  2037  04F3  3000               	movlw	0
  2038  04F4  00CE               	movwf	___flmul@a
  2039  04F5                     l1392:
  2040  04F5  085C               	movf	___flmul@aexp,w
  2041  04F6  1903               	btfsc	3,2
  2042  04F7  2CF9               	goto	u1741
  2043  04F8  2CFA               	goto	u1740
  2044  04F9                     u1741:
  2045  04F9  2CFF               	goto	l1396
  2046  04FA                     u1740:
  2047  04FA                     l1394:
  2048  04FA  085D               	movf	___flmul@bexp,w
  2049  04FB  1D03               	btfss	3,2
  2050  04FC  2CFE               	goto	u1751
  2051  04FD  2CFF               	goto	u1750
  2052  04FE                     u1751:
  2053  04FE  2D08               	goto	l1400
  2054  04FF                     u1750:
  2055  04FF                     l1396:
  2056  04FF  3000               	movlw	0
  2057  0500  00CD               	movwf	?___flmul+3
  2058  0501  3000               	movlw	0
  2059  0502  00CC               	movwf	?___flmul+2
  2060  0503  3000               	movlw	0
  2061  0504  00CB               	movwf	?___flmul+1
  2062  0505  3000               	movlw	0
  2063  0506  00CA               	movwf	?___flmul
  2064  0507  2FFB               	goto	l549
  2065  0508                     l1400:
  2066  0508  084A               	movf	___flmul@b,w
  2067  0509  00D2               	movwf	??___flmul
  2068  050A  0852               	movf	??___flmul,w
  2069  050B  00F0               	movwf	__Umul8_16@multiplicand
  2070  050C  0850               	movf	___flmul@a+2,w
  2071  050D  120A  158A  265C  120A  118A  	fcall	__Umul8_16
  2072  0512  0871               	movf	?__Umul8_16+1,w
  2073  0513  1283               	bcf	3,5	;RP0=0, select bank0
  2074  0514  1303               	bcf	3,6	;RP1=0, select bank0
  2075  0515  00E3               	movwf	___flmul@temp+1
  2076  0516  0870               	movf	?__Umul8_16,w
  2077  0517  00E2               	movwf	___flmul@temp
  2078  0518                     l1402:
  2079  0518  0862               	movf	___flmul@temp,w
  2080  0519  00D2               	movwf	??___flmul
  2081  051A  01D3               	clrf	??___flmul+1
  2082  051B  01D4               	clrf	??___flmul+2
  2083  051C  01D5               	clrf	??___flmul+3
  2084  051D  0855               	movf	??___flmul+3,w
  2085  051E  00DB               	movwf	___flmul@grs+3
  2086  051F  0854               	movf	??___flmul+2,w
  2087  0520  00DA               	movwf	___flmul@grs+2
  2088  0521  0853               	movf	??___flmul+1,w
  2089  0522  00D9               	movwf	___flmul@grs+1
  2090  0523  0852               	movf	??___flmul,w
  2091  0524  00D8               	movwf	___flmul@grs
  2092  0525                     l1404:
  2093  0525  0863               	movf	___flmul@temp+1,w
  2094  0526  00D2               	movwf	??___flmul
  2095  0527  01D3               	clrf	??___flmul+1
  2096  0528  01D4               	clrf	??___flmul+2
  2097  0529  01D5               	clrf	??___flmul+3
  2098  052A  0855               	movf	??___flmul+3,w
  2099  052B  00E1               	movwf	___flmul@prod+3
  2100  052C  0854               	movf	??___flmul+2,w
  2101  052D  00E0               	movwf	___flmul@prod+2
  2102  052E  0853               	movf	??___flmul+1,w
  2103  052F  00DF               	movwf	___flmul@prod+1
  2104  0530  0852               	movf	??___flmul,w
  2105  0531  00DE               	movwf	___flmul@prod
  2106  0532  084B               	movf	___flmul@b+1,w
  2107  0533  00D2               	movwf	??___flmul
  2108  0534  0852               	movf	??___flmul,w
  2109  0535  00F0               	movwf	__Umul8_16@multiplicand
  2110  0536  084F               	movf	___flmul@a+1,w
  2111  0537  120A  158A  265C  120A  118A  	fcall	__Umul8_16
  2112  053C  0871               	movf	?__Umul8_16+1,w
  2113  053D  1283               	bcf	3,5	;RP0=0, select bank0
  2114  053E  1303               	bcf	3,6	;RP1=0, select bank0
  2115  053F  00E3               	movwf	___flmul@temp+1
  2116  0540  0870               	movf	?__Umul8_16,w
  2117  0541  00E2               	movwf	___flmul@temp
  2118  0542                     l1406:
  2119  0542  0862               	movf	___flmul@temp,w
  2120  0543  00D2               	movwf	??___flmul
  2121  0544  01D3               	clrf	??___flmul+1
  2122  0545  01D4               	clrf	??___flmul+2
  2123  0546  01D5               	clrf	??___flmul+3
  2124  0547  0852               	movf	??___flmul,w
  2125  0548  07D8               	addwf	___flmul@grs,f
  2126  0549  0853               	movf	??___flmul+1,w
  2127  054A  1103               	clrz
  2128  054B  1803               	skipnc
  2129  054C  3E01               	addlw	1
  2130  054D  1903               	skipnz
  2131  054E  2D50               	goto	u1761
  2132  054F  07D9               	addwf	___flmul@grs+1,f
  2133  0550                     u1761:
  2134  0550  0854               	movf	??___flmul+2,w
  2135  0551  1103               	clrz
  2136  0552  1803               	skipnc
  2137  0553  3E01               	addlw	1
  2138  0554  1903               	skipnz
  2139  0555  2D57               	goto	u1762
  2140  0556  07DA               	addwf	___flmul@grs+2,f
  2141  0557                     u1762:
  2142  0557  0855               	movf	??___flmul+3,w
  2143  0558  1103               	clrz
  2144  0559  1803               	skipnc
  2145  055A  3E01               	addlw	1
  2146  055B  1903               	skipnz
  2147  055C  2D5E               	goto	u1763
  2148  055D  07DB               	addwf	___flmul@grs+3,f
  2149  055E                     u1763:
  2150  055E                     l1408:
  2151  055E  0863               	movf	___flmul@temp+1,w
  2152  055F  00D2               	movwf	??___flmul
  2153  0560  01D3               	clrf	??___flmul+1
  2154  0561  01D4               	clrf	??___flmul+2
  2155  0562  01D5               	clrf	??___flmul+3
  2156  0563  0852               	movf	??___flmul,w
  2157  0564  07DE               	addwf	___flmul@prod,f
  2158  0565  0853               	movf	??___flmul+1,w
  2159  0566  1103               	clrz
  2160  0567  1803               	skipnc
  2161  0568  3E01               	addlw	1
  2162  0569  1903               	skipnz
  2163  056A  2D6C               	goto	u1771
  2164  056B  07DF               	addwf	___flmul@prod+1,f
  2165  056C                     u1771:
  2166  056C  0854               	movf	??___flmul+2,w
  2167  056D  1103               	clrz
  2168  056E  1803               	skipnc
  2169  056F  3E01               	addlw	1
  2170  0570  1903               	skipnz
  2171  0571  2D73               	goto	u1772
  2172  0572  07E0               	addwf	___flmul@prod+2,f
  2173  0573                     u1772:
  2174  0573  0855               	movf	??___flmul+3,w
  2175  0574  1103               	clrz
  2176  0575  1803               	skipnc
  2177  0576  3E01               	addlw	1
  2178  0577  1903               	skipnz
  2179  0578  2D7A               	goto	u1773
  2180  0579  07E1               	addwf	___flmul@prod+3,f
  2181  057A                     u1773:
  2182  057A  084C               	movf	___flmul@b+2,w
  2183  057B  00D2               	movwf	??___flmul
  2184  057C  0852               	movf	??___flmul,w
  2185  057D  00F0               	movwf	__Umul8_16@multiplicand
  2186  057E  084E               	movf	___flmul@a,w
  2187  057F  120A  158A  265C  120A  118A  	fcall	__Umul8_16
  2188  0584  0871               	movf	?__Umul8_16+1,w
  2189  0585  1283               	bcf	3,5	;RP0=0, select bank0
  2190  0586  1303               	bcf	3,6	;RP1=0, select bank0
  2191  0587  00E3               	movwf	___flmul@temp+1
  2192  0588  0870               	movf	?__Umul8_16,w
  2193  0589  00E2               	movwf	___flmul@temp
  2194  058A                     l1410:
  2195  058A  0862               	movf	___flmul@temp,w
  2196  058B  00D2               	movwf	??___flmul
  2197  058C  01D3               	clrf	??___flmul+1
  2198  058D  01D4               	clrf	??___flmul+2
  2199  058E  01D5               	clrf	??___flmul+3
  2200  058F  0852               	movf	??___flmul,w
  2201  0590  07D8               	addwf	___flmul@grs,f
  2202  0591  0853               	movf	??___flmul+1,w
  2203  0592  1103               	clrz
  2204  0593  1803               	skipnc
  2205  0594  3E01               	addlw	1
  2206  0595  1903               	skipnz
  2207  0596  2D98               	goto	u1781
  2208  0597  07D9               	addwf	___flmul@grs+1,f
  2209  0598                     u1781:
  2210  0598  0854               	movf	??___flmul+2,w
  2211  0599  1103               	clrz
  2212  059A  1803               	skipnc
  2213  059B  3E01               	addlw	1
  2214  059C  1903               	skipnz
  2215  059D  2D9F               	goto	u1782
  2216  059E  07DA               	addwf	___flmul@grs+2,f
  2217  059F                     u1782:
  2218  059F  0855               	movf	??___flmul+3,w
  2219  05A0  1103               	clrz
  2220  05A1  1803               	skipnc
  2221  05A2  3E01               	addlw	1
  2222  05A3  1903               	skipnz
  2223  05A4  2DA6               	goto	u1783
  2224  05A5  07DB               	addwf	___flmul@grs+3,f
  2225  05A6                     u1783:
  2226  05A6                     l1412:
  2227  05A6  0863               	movf	___flmul@temp+1,w
  2228  05A7  00D2               	movwf	??___flmul
  2229  05A8  01D3               	clrf	??___flmul+1
  2230  05A9  01D4               	clrf	??___flmul+2
  2231  05AA  01D5               	clrf	??___flmul+3
  2232  05AB  0852               	movf	??___flmul,w
  2233  05AC  07DE               	addwf	___flmul@prod,f
  2234  05AD  0853               	movf	??___flmul+1,w
  2235  05AE  1103               	clrz
  2236  05AF  1803               	skipnc
  2237  05B0  3E01               	addlw	1
  2238  05B1  1903               	skipnz
  2239  05B2  2DB4               	goto	u1791
  2240  05B3  07DF               	addwf	___flmul@prod+1,f
  2241  05B4                     u1791:
  2242  05B4  0854               	movf	??___flmul+2,w
  2243  05B5  1103               	clrz
  2244  05B6  1803               	skipnc
  2245  05B7  3E01               	addlw	1
  2246  05B8  1903               	skipnz
  2247  05B9  2DBB               	goto	u1792
  2248  05BA  07E0               	addwf	___flmul@prod+2,f
  2249  05BB                     u1792:
  2250  05BB  0855               	movf	??___flmul+3,w
  2251  05BC  1103               	clrz
  2252  05BD  1803               	skipnc
  2253  05BE  3E01               	addlw	1
  2254  05BF  1903               	skipnz
  2255  05C0  2DC2               	goto	u1793
  2256  05C1  07E1               	addwf	___flmul@prod+3,f
  2257  05C2                     u1793:
  2258  05C2                     l1414:
  2259  05C2  3008               	movlw	8
  2260  05C3  00D2               	movwf	??___flmul
  2261  05C4                     u1805:
  2262  05C4  1003               	clrc
  2263  05C5  0DD8               	rlf	___flmul@grs,f
  2264  05C6  0DD9               	rlf	___flmul@grs+1,f
  2265  05C7  0DDA               	rlf	___flmul@grs+2,f
  2266  05C8  0DDB               	rlf	___flmul@grs+3,f
  2267  05C9  0BD2               	decfsz	??___flmul,f
  2268  05CA  2DC4               	goto	u1805
  2269  05CB                     l1416:
  2270  05CB  084B               	movf	___flmul@b+1,w
  2271  05CC  00D2               	movwf	??___flmul
  2272  05CD  0852               	movf	??___flmul,w
  2273  05CE  00F0               	movwf	__Umul8_16@multiplicand
  2274  05CF  084E               	movf	___flmul@a,w
  2275  05D0  120A  158A  265C  120A  118A  	fcall	__Umul8_16
  2276  05D5  0871               	movf	?__Umul8_16+1,w
  2277  05D6  1283               	bcf	3,5	;RP0=0, select bank0
  2278  05D7  1303               	bcf	3,6	;RP1=0, select bank0
  2279  05D8  00E3               	movwf	___flmul@temp+1
  2280  05D9  0870               	movf	?__Umul8_16,w
  2281  05DA  00E2               	movwf	___flmul@temp
  2282  05DB                     l1418:
  2283  05DB  0862               	movf	___flmul@temp,w
  2284  05DC  00D2               	movwf	??___flmul
  2285  05DD  0863               	movf	___flmul@temp+1,w
  2286  05DE  00D3               	movwf	??___flmul+1
  2287  05DF  01D4               	clrf	??___flmul+2
  2288  05E0  01D5               	clrf	??___flmul+3
  2289  05E1  0852               	movf	??___flmul,w
  2290  05E2  07D8               	addwf	___flmul@grs,f
  2291  05E3  0853               	movf	??___flmul+1,w
  2292  05E4  1103               	clrz
  2293  05E5  1803               	skipnc
  2294  05E6  3E01               	addlw	1
  2295  05E7  1903               	skipnz
  2296  05E8  2DEA               	goto	u1811
  2297  05E9  07D9               	addwf	___flmul@grs+1,f
  2298  05EA                     u1811:
  2299  05EA  0854               	movf	??___flmul+2,w
  2300  05EB  1103               	clrz
  2301  05EC  1803               	skipnc
  2302  05ED  3E01               	addlw	1
  2303  05EE  1903               	skipnz
  2304  05EF  2DF1               	goto	u1812
  2305  05F0  07DA               	addwf	___flmul@grs+2,f
  2306  05F1                     u1812:
  2307  05F1  0855               	movf	??___flmul+3,w
  2308  05F2  1103               	clrz
  2309  05F3  1803               	skipnc
  2310  05F4  3E01               	addlw	1
  2311  05F5  1903               	skipnz
  2312  05F6  2DF8               	goto	u1813
  2313  05F7  07DB               	addwf	___flmul@grs+3,f
  2314  05F8                     u1813:
  2315  05F8                     l1420:
  2316  05F8  084A               	movf	___flmul@b,w
  2317  05F9  00D2               	movwf	??___flmul
  2318  05FA  0852               	movf	??___flmul,w
  2319  05FB  00F0               	movwf	__Umul8_16@multiplicand
  2320  05FC  084F               	movf	___flmul@a+1,w
  2321  05FD  120A  158A  265C  120A  118A  	fcall	__Umul8_16
  2322  0602  0871               	movf	?__Umul8_16+1,w
  2323  0603  1283               	bcf	3,5	;RP0=0, select bank0
  2324  0604  1303               	bcf	3,6	;RP1=0, select bank0
  2325  0605  00E3               	movwf	___flmul@temp+1
  2326  0606  0870               	movf	?__Umul8_16,w
  2327  0607  00E2               	movwf	___flmul@temp
  2328  0608                     l1422:
  2329  0608  0862               	movf	___flmul@temp,w
  2330  0609  00D2               	movwf	??___flmul
  2331  060A  0863               	movf	___flmul@temp+1,w
  2332  060B  00D3               	movwf	??___flmul+1
  2333  060C  01D4               	clrf	??___flmul+2
  2334  060D  01D5               	clrf	??___flmul+3
  2335  060E  0852               	movf	??___flmul,w
  2336  060F  07D8               	addwf	___flmul@grs,f
  2337  0610  0853               	movf	??___flmul+1,w
  2338  0611  1103               	clrz
  2339  0612  1803               	skipnc
  2340  0613  3E01               	addlw	1
  2341  0614  1903               	skipnz
  2342  0615  2E17               	goto	u1821
  2343  0616  07D9               	addwf	___flmul@grs+1,f
  2344  0617                     u1821:
  2345  0617  0854               	movf	??___flmul+2,w
  2346  0618  1103               	clrz
  2347  0619  1803               	skipnc
  2348  061A  3E01               	addlw	1
  2349  061B  1903               	skipnz
  2350  061C  2E1E               	goto	u1822
  2351  061D  07DA               	addwf	___flmul@grs+2,f
  2352  061E                     u1822:
  2353  061E  0855               	movf	??___flmul+3,w
  2354  061F  1103               	clrz
  2355  0620  1803               	skipnc
  2356  0621  3E01               	addlw	1
  2357  0622  1903               	skipnz
  2358  0623  2E25               	goto	u1823
  2359  0624  07DB               	addwf	___flmul@grs+3,f
  2360  0625                     u1823:
  2361  0625                     l1424:
  2362  0625  3008               	movlw	8
  2363  0626  00D2               	movwf	??___flmul
  2364  0627                     u1835:
  2365  0627  1003               	clrc
  2366  0628  0DD8               	rlf	___flmul@grs,f
  2367  0629  0DD9               	rlf	___flmul@grs+1,f
  2368  062A  0DDA               	rlf	___flmul@grs+2,f
  2369  062B  0DDB               	rlf	___flmul@grs+3,f
  2370  062C  0BD2               	decfsz	??___flmul,f
  2371  062D  2E27               	goto	u1835
  2372  062E  084A               	movf	___flmul@b,w
  2373  062F  00D2               	movwf	??___flmul
  2374  0630  0852               	movf	??___flmul,w
  2375  0631  00F0               	movwf	__Umul8_16@multiplicand
  2376  0632  084E               	movf	___flmul@a,w
  2377  0633  120A  158A  265C  120A  118A  	fcall	__Umul8_16
  2378  0638  0871               	movf	?__Umul8_16+1,w
  2379  0639  1283               	bcf	3,5	;RP0=0, select bank0
  2380  063A  1303               	bcf	3,6	;RP1=0, select bank0
  2381  063B  00E3               	movwf	___flmul@temp+1
  2382  063C  0870               	movf	?__Umul8_16,w
  2383  063D  00E2               	movwf	___flmul@temp
  2384  063E                     l1426:
  2385  063E  0862               	movf	___flmul@temp,w
  2386  063F  00D2               	movwf	??___flmul
  2387  0640  0863               	movf	___flmul@temp+1,w
  2388  0641  00D3               	movwf	??___flmul+1
  2389  0642  01D4               	clrf	??___flmul+2
  2390  0643  01D5               	clrf	??___flmul+3
  2391  0644  0852               	movf	??___flmul,w
  2392  0645  07D8               	addwf	___flmul@grs,f
  2393  0646  0853               	movf	??___flmul+1,w
  2394  0647  1103               	clrz
  2395  0648  1803               	skipnc
  2396  0649  3E01               	addlw	1
  2397  064A  1903               	skipnz
  2398  064B  2E4D               	goto	u1841
  2399  064C  07D9               	addwf	___flmul@grs+1,f
  2400  064D                     u1841:
  2401  064D  0854               	movf	??___flmul+2,w
  2402  064E  1103               	clrz
  2403  064F  1803               	skipnc
  2404  0650  3E01               	addlw	1
  2405  0651  1903               	skipnz
  2406  0652  2E54               	goto	u1842
  2407  0653  07DA               	addwf	___flmul@grs+2,f
  2408  0654                     u1842:
  2409  0654  0855               	movf	??___flmul+3,w
  2410  0655  1103               	clrz
  2411  0656  1803               	skipnc
  2412  0657  3E01               	addlw	1
  2413  0658  1903               	skipnz
  2414  0659  2E5B               	goto	u1843
  2415  065A  07DB               	addwf	___flmul@grs+3,f
  2416  065B                     u1843:
  2417  065B                     l1428:
  2418  065B  084B               	movf	___flmul@b+1,w
  2419  065C  00D2               	movwf	??___flmul
  2420  065D  0852               	movf	??___flmul,w
  2421  065E  00F0               	movwf	__Umul8_16@multiplicand
  2422  065F  0850               	movf	___flmul@a+2,w
  2423  0660  120A  158A  265C  120A  118A  	fcall	__Umul8_16
  2424  0665  0871               	movf	?__Umul8_16+1,w
  2425  0666  1283               	bcf	3,5	;RP0=0, select bank0
  2426  0667  1303               	bcf	3,6	;RP1=0, select bank0
  2427  0668  00E3               	movwf	___flmul@temp+1
  2428  0669  0870               	movf	?__Umul8_16,w
  2429  066A  00E2               	movwf	___flmul@temp
  2430  066B  0862               	movf	___flmul@temp,w
  2431  066C  00D2               	movwf	??___flmul
  2432  066D  0863               	movf	___flmul@temp+1,w
  2433  066E  00D3               	movwf	??___flmul+1
  2434  066F  01D4               	clrf	??___flmul+2
  2435  0670  01D5               	clrf	??___flmul+3
  2436  0671  0852               	movf	??___flmul,w
  2437  0672  07DE               	addwf	___flmul@prod,f
  2438  0673  0853               	movf	??___flmul+1,w
  2439  0674  1103               	clrz
  2440  0675  1803               	skipnc
  2441  0676  3E01               	addlw	1
  2442  0677  1903               	skipnz
  2443  0678  2E7A               	goto	u1851
  2444  0679  07DF               	addwf	___flmul@prod+1,f
  2445  067A                     u1851:
  2446  067A  0854               	movf	??___flmul+2,w
  2447  067B  1103               	clrz
  2448  067C  1803               	skipnc
  2449  067D  3E01               	addlw	1
  2450  067E  1903               	skipnz
  2451  067F  2E81               	goto	u1852
  2452  0680  07E0               	addwf	___flmul@prod+2,f
  2453  0681                     u1852:
  2454  0681  0855               	movf	??___flmul+3,w
  2455  0682  1103               	clrz
  2456  0683  1803               	skipnc
  2457  0684  3E01               	addlw	1
  2458  0685  1903               	skipnz
  2459  0686  2E88               	goto	u1853
  2460  0687  07E1               	addwf	___flmul@prod+3,f
  2461  0688                     u1853:
  2462  0688                     l1430:
  2463  0688  084C               	movf	___flmul@b+2,w
  2464  0689  00D2               	movwf	??___flmul
  2465  068A  0852               	movf	??___flmul,w
  2466  068B  00F0               	movwf	__Umul8_16@multiplicand
  2467  068C  084F               	movf	___flmul@a+1,w
  2468  068D  120A  158A  265C  120A  118A  	fcall	__Umul8_16
  2469  0692  0871               	movf	?__Umul8_16+1,w
  2470  0693  1283               	bcf	3,5	;RP0=0, select bank0
  2471  0694  1303               	bcf	3,6	;RP1=0, select bank0
  2472  0695  00E3               	movwf	___flmul@temp+1
  2473  0696  0870               	movf	?__Umul8_16,w
  2474  0697  00E2               	movwf	___flmul@temp
  2475  0698                     l1432:
  2476  0698  0862               	movf	___flmul@temp,w
  2477  0699  00D2               	movwf	??___flmul
  2478  069A  0863               	movf	___flmul@temp+1,w
  2479  069B  00D3               	movwf	??___flmul+1
  2480  069C  01D4               	clrf	??___flmul+2
  2481  069D  01D5               	clrf	??___flmul+3
  2482  069E  0852               	movf	??___flmul,w
  2483  069F  07DE               	addwf	___flmul@prod,f
  2484  06A0  0853               	movf	??___flmul+1,w
  2485  06A1  1103               	clrz
  2486  06A2  1803               	skipnc
  2487  06A3  3E01               	addlw	1
  2488  06A4  1903               	skipnz
  2489  06A5  2EA7               	goto	u1861
  2490  06A6  07DF               	addwf	___flmul@prod+1,f
  2491  06A7                     u1861:
  2492  06A7  0854               	movf	??___flmul+2,w
  2493  06A8  1103               	clrz
  2494  06A9  1803               	skipnc
  2495  06AA  3E01               	addlw	1
  2496  06AB  1903               	skipnz
  2497  06AC  2EAE               	goto	u1862
  2498  06AD  07E0               	addwf	___flmul@prod+2,f
  2499  06AE                     u1862:
  2500  06AE  0855               	movf	??___flmul+3,w
  2501  06AF  1103               	clrz
  2502  06B0  1803               	skipnc
  2503  06B1  3E01               	addlw	1
  2504  06B2  1903               	skipnz
  2505  06B3  2EB5               	goto	u1863
  2506  06B4  07E1               	addwf	___flmul@prod+3,f
  2507  06B5                     u1863:
  2508  06B5  084C               	movf	___flmul@b+2,w
  2509  06B6  00D2               	movwf	??___flmul
  2510  06B7  0852               	movf	??___flmul,w
  2511  06B8  00F0               	movwf	__Umul8_16@multiplicand
  2512  06B9  0850               	movf	___flmul@a+2,w
  2513  06BA  120A  158A  265C  120A  118A  	fcall	__Umul8_16
  2514  06BF  0871               	movf	?__Umul8_16+1,w
  2515  06C0  1283               	bcf	3,5	;RP0=0, select bank0
  2516  06C1  1303               	bcf	3,6	;RP1=0, select bank0
  2517  06C2  00E3               	movwf	___flmul@temp+1
  2518  06C3  0870               	movf	?__Umul8_16,w
  2519  06C4  00E2               	movwf	___flmul@temp
  2520  06C5                     l1434:
  2521  06C5  0862               	movf	___flmul@temp,w
  2522  06C6  00D2               	movwf	??___flmul
  2523  06C7  0863               	movf	___flmul@temp+1,w
  2524  06C8  00D3               	movwf	??___flmul+1
  2525  06C9  01D4               	clrf	??___flmul+2
  2526  06CA  01D5               	clrf	??___flmul+3
  2527  06CB  3008               	movlw	8
  2528  06CC                     u1875:
  2529  06CC  1003               	clrc
  2530  06CD  0DD2               	rlf	??___flmul,f
  2531  06CE  0DD3               	rlf	??___flmul+1,f
  2532  06CF  0DD4               	rlf	??___flmul+2,f
  2533  06D0  0DD5               	rlf	??___flmul+3,f
  2534  06D1                     u1870:
  2535  06D1  3EFF               	addlw	-1
  2536  06D2  1D03               	skipz
  2537  06D3  2ECC               	goto	u1875
  2538  06D4  0852               	movf	??___flmul,w
  2539  06D5  07DE               	addwf	___flmul@prod,f
  2540  06D6  0853               	movf	??___flmul+1,w
  2541  06D7  1103               	clrz
  2542  06D8  1803               	skipnc
  2543  06D9  3E01               	addlw	1
  2544  06DA  1903               	skipnz
  2545  06DB  2EDD               	goto	u1881
  2546  06DC  07DF               	addwf	___flmul@prod+1,f
  2547  06DD                     u1881:
  2548  06DD  0854               	movf	??___flmul+2,w
  2549  06DE  1103               	clrz
  2550  06DF  1803               	skipnc
  2551  06E0  3E01               	addlw	1
  2552  06E1  1903               	skipnz
  2553  06E2  2EE4               	goto	u1882
  2554  06E3  07E0               	addwf	___flmul@prod+2,f
  2555  06E4                     u1882:
  2556  06E4  0855               	movf	??___flmul+3,w
  2557  06E5  1103               	clrz
  2558  06E6  1803               	skipnc
  2559  06E7  3E01               	addlw	1
  2560  06E8  1903               	skipnz
  2561  06E9  2EEB               	goto	u1883
  2562  06EA  07E1               	addwf	___flmul@prod+3,f
  2563  06EB                     u1883:
  2564  06EB                     l1436:
  2565  06EB  0858               	movf	___flmul@grs,w
  2566  06EC  00D2               	movwf	??___flmul
  2567  06ED  0859               	movf	___flmul@grs+1,w
  2568  06EE  00D3               	movwf	??___flmul+1
  2569  06EF  085A               	movf	___flmul@grs+2,w
  2570  06F0  00D4               	movwf	??___flmul+2
  2571  06F1  085B               	movf	___flmul@grs+3,w
  2572  06F2  00D5               	movwf	??___flmul+3
  2573  06F3  3018               	movlw	24
  2574  06F4                     u1895:
  2575  06F4  1003               	clrc
  2576  06F5  0CD5               	rrf	??___flmul+3,f
  2577  06F6  0CD4               	rrf	??___flmul+2,f
  2578  06F7  0CD3               	rrf	??___flmul+1,f
  2579  06F8  0CD2               	rrf	??___flmul,f
  2580  06F9                     u1890:
  2581  06F9  3EFF               	addlw	-1
  2582  06FA  1D03               	skipz
  2583  06FB  2EF4               	goto	u1895
  2584  06FC  0852               	movf	??___flmul,w
  2585  06FD  07DE               	addwf	___flmul@prod,f
  2586  06FE  0853               	movf	??___flmul+1,w
  2587  06FF  1103               	clrz
  2588  0700  1803               	skipnc
  2589  0701  3E01               	addlw	1
  2590  0702  1903               	skipnz
  2591  0703  2F05               	goto	u1901
  2592  0704  07DF               	addwf	___flmul@prod+1,f
  2593  0705                     u1901:
  2594  0705  0854               	movf	??___flmul+2,w
  2595  0706  1103               	clrz
  2596  0707  1803               	skipnc
  2597  0708  3E01               	addlw	1
  2598  0709  1903               	skipnz
  2599  070A  2F0C               	goto	u1902
  2600  070B  07E0               	addwf	___flmul@prod+2,f
  2601  070C                     u1902:
  2602  070C  0855               	movf	??___flmul+3,w
  2603  070D  1103               	clrz
  2604  070E  1803               	skipnc
  2605  070F  3E01               	addlw	1
  2606  0710  1903               	skipnz
  2607  0711  2F13               	goto	u1903
  2608  0712  07E1               	addwf	___flmul@prod+3,f
  2609  0713                     u1903:
  2610  0713                     l1438:
  2611  0713  3008               	movlw	8
  2612  0714  00D2               	movwf	??___flmul
  2613  0715                     u1915:
  2614  0715  1003               	clrc
  2615  0716  0DD8               	rlf	___flmul@grs,f
  2616  0717  0DD9               	rlf	___flmul@grs+1,f
  2617  0718  0DDA               	rlf	___flmul@grs+2,f
  2618  0719  0DDB               	rlf	___flmul@grs+3,f
  2619  071A  0BD2               	decfsz	??___flmul,f
  2620  071B  2F15               	goto	u1915
  2621  071C                     l1440:
  2622  071C  085D               	movf	___flmul@bexp,w
  2623  071D  075C               	addwf	___flmul@aexp,w
  2624  071E  00D2               	movwf	??___flmul
  2625  071F  01D3               	clrf	??___flmul+1
  2626  0720  0DD3               	rlf	??___flmul+1,f
  2627  0721  0852               	movf	??___flmul,w
  2628  0722  3E82               	addlw	130
  2629  0723  00E2               	movwf	___flmul@temp
  2630  0724  0853               	movf	??___flmul+1,w
  2631  0725  1803               	skipnc
  2632  0726  3E01               	addlw	1
  2633  0727  3EFF               	addlw	255
  2634  0728  00E3               	movwf	___flmul@temp+1
  2635  0729  2F47               	goto	l1452
  2636  072A                     l1442:
  2637  072A  3001               	movlw	1
  2638  072B  00D2               	movwf	??___flmul
  2639  072C                     u1925:
  2640  072C  1003               	clrc
  2641  072D  0DDE               	rlf	___flmul@prod,f
  2642  072E  0DDF               	rlf	___flmul@prod+1,f
  2643  072F  0DE0               	rlf	___flmul@prod+2,f
  2644  0730  0DE1               	rlf	___flmul@prod+3,f
  2645  0731  0BD2               	decfsz	??___flmul,f
  2646  0732  2F2C               	goto	u1925
  2647  0733                     l1444:
  2648  0733  1FDB               	btfss	___flmul@grs+3,7
  2649  0734  2F36               	goto	u1931
  2650  0735  2F37               	goto	u1930
  2651  0736                     u1931:
  2652  0736  2F38               	goto	l1448
  2653  0737                     u1930:
  2654  0737                     l1446:
  2655  0737  145E               	bsf	___flmul@prod,0
  2656  0738                     l1448:
  2657  0738  3001               	movlw	1
  2658  0739  00D2               	movwf	??___flmul
  2659  073A                     u1945:
  2660  073A  1003               	clrc
  2661  073B  0DD8               	rlf	___flmul@grs,f
  2662  073C  0DD9               	rlf	___flmul@grs+1,f
  2663  073D  0DDA               	rlf	___flmul@grs+2,f
  2664  073E  0DDB               	rlf	___flmul@grs+3,f
  2665  073F  0BD2               	decfsz	??___flmul,f
  2666  0740  2F3A               	goto	u1945
  2667  0741                     l1450:
  2668  0741  30FF               	movlw	255
  2669  0742  07E2               	addwf	___flmul@temp,f
  2670  0743  1803               	skipnc
  2671  0744  0AE3               	incf	___flmul@temp+1,f
  2672  0745  30FF               	movlw	255
  2673  0746  07E3               	addwf	___flmul@temp+1,f
  2674  0747                     l1452:
  2675  0747  1FE0               	btfss	___flmul@prod+2,7
  2676  0748  2F4A               	goto	u1951
  2677  0749  2F4B               	goto	u1950
  2678  074A                     u1951:
  2679  074A  2F2A               	goto	l1442
  2680  074B                     u1950:
  2681  074B                     l1454:
  2682  074B  01DC               	clrf	___flmul@aexp
  2683  074C                     l1456:
  2684  074C  1FDB               	btfss	___flmul@grs+3,7
  2685  074D  2F4F               	goto	u1961
  2686  074E  2F50               	goto	u1960
  2687  074F                     u1961:
  2688  074F  2F6C               	goto	l1464
  2689  0750                     u1960:
  2690  0750                     l1458:
  2691  0750  30FF               	movlw	255
  2692  0751  0558               	andwf	___flmul@grs,w
  2693  0752  00D2               	movwf	??___flmul
  2694  0753  30FF               	movlw	255
  2695  0754  0559               	andwf	___flmul@grs+1,w
  2696  0755  00D3               	movwf	??___flmul+1
  2697  0756  30FF               	movlw	255
  2698  0757  055A               	andwf	___flmul@grs+2,w
  2699  0758  00D4               	movwf	??___flmul+2
  2700  0759  307F               	movlw	127
  2701  075A  055B               	andwf	___flmul@grs+3,w
  2702  075B  00D5               	movwf	??___flmul+3
  2703  075C  0855               	movf	??___flmul+3,w
  2704  075D  0454               	iorwf	??___flmul+2,w
  2705  075E  0453               	iorwf	??___flmul+1,w
  2706  075F  0452               	iorwf	??___flmul,w
  2707  0760  1903               	skipnz
  2708  0761  2F63               	goto	u1971
  2709  0762  2F64               	goto	u1970
  2710  0763                     u1971:
  2711  0763  2F67               	goto	l555
  2712  0764                     u1970:
  2713  0764                     l1460:
  2714  0764  01DC               	clrf	___flmul@aexp
  2715  0765  0ADC               	incf	___flmul@aexp,f
  2716  0766  2F6C               	goto	l1464
  2717  0767                     l555:
  2718  0767  1C5E               	btfss	___flmul@prod,0
  2719  0768  2F6A               	goto	u1981
  2720  0769  2F6B               	goto	u1980
  2721  076A                     u1981:
  2722  076A  2F6C               	goto	l1464
  2723  076B                     u1980:
  2724  076B  2F64               	goto	l1460
  2725  076C                     l1464:
  2726  076C  085C               	movf	___flmul@aexp,w
  2727  076D  1903               	btfsc	3,2
  2728  076E  2F70               	goto	u1991
  2729  076F  2F71               	goto	u1990
  2730  0770                     u1991:
  2731  0770  2FA2               	goto	l1474
  2732  0771                     u1990:
  2733  0771                     l1466:
  2734  0771  3001               	movlw	1
  2735  0772  07DE               	addwf	___flmul@prod,f
  2736  0773  3000               	movlw	0
  2737  0774  1803               	skipnc
  2738  0775  3001               	movlw	1
  2739  0776  07DF               	addwf	___flmul@prod+1,f
  2740  0777  3000               	movlw	0
  2741  0778  1803               	skipnc
  2742  0779  3001               	movlw	1
  2743  077A  07E0               	addwf	___flmul@prod+2,f
  2744  077B  3000               	movlw	0
  2745  077C  1803               	skipnc
  2746  077D  3001               	movlw	1
  2747  077E  07E1               	addwf	___flmul@prod+3,f
  2748  077F                     l1468:
  2749  077F  1C61               	btfss	___flmul@prod+3,0
  2750  0780  2F82               	goto	u2001
  2751  0781  2F83               	goto	u2000
  2752  0782                     u2001:
  2753  0782  2FA2               	goto	l1474
  2754  0783                     u2000:
  2755  0783                     l1470:
  2756  0783  085E               	movf	___flmul@prod,w
  2757  0784  00D2               	movwf	??___flmul
  2758  0785  085F               	movf	___flmul@prod+1,w
  2759  0786  00D3               	movwf	??___flmul+1
  2760  0787  0860               	movf	___flmul@prod+2,w
  2761  0788  00D4               	movwf	??___flmul+2
  2762  0789  0861               	movf	___flmul@prod+3,w
  2763  078A  00D5               	movwf	??___flmul+3
  2764  078B  3001               	movlw	1
  2765  078C  00D6               	movwf	??___flmul+4
  2766  078D                     u2015:
  2767  078D  0D55               	rlf	??___flmul+3,w
  2768  078E  0CD5               	rrf	??___flmul+3,f
  2769  078F  0CD4               	rrf	??___flmul+2,f
  2770  0790  0CD3               	rrf	??___flmul+1,f
  2771  0791  0CD2               	rrf	??___flmul,f
  2772  0792                     u2010:
  2773  0792  0BD6               	decfsz	??___flmul+4,f
  2774  0793  2F8D               	goto	u2015
  2775  0794  0855               	movf	??___flmul+3,w
  2776  0795  00E1               	movwf	___flmul@prod+3
  2777  0796  0854               	movf	??___flmul+2,w
  2778  0797  00E0               	movwf	___flmul@prod+2
  2779  0798  0853               	movf	??___flmul+1,w
  2780  0799  00DF               	movwf	___flmul@prod+1
  2781  079A  0852               	movf	??___flmul,w
  2782  079B  00DE               	movwf	___flmul@prod
  2783  079C                     l1472:
  2784  079C  3001               	movlw	1
  2785  079D  07E2               	addwf	___flmul@temp,f
  2786  079E  1803               	skipnc
  2787  079F  0AE3               	incf	___flmul@temp+1,f
  2788  07A0  3000               	movlw	0
  2789  07A1  07E3               	addwf	___flmul@temp+1,f
  2790  07A2                     l1474:
  2791  07A2  0863               	movf	___flmul@temp+1,w
  2792  07A3  3A80               	xorlw	128
  2793  07A4  00FF               	movwf	btemp+1
  2794  07A5  3080               	movlw	128
  2795  07A6  027F               	subwf	btemp+1,w
  2796  07A7  1D03               	skipz
  2797  07A8  2FAB               	goto	u2025
  2798  07A9  30FF               	movlw	255
  2799  07AA  0262               	subwf	___flmul@temp,w
  2800  07AB                     u2025:
  2801  07AB  1C03               	skipc
  2802  07AC  2FAE               	goto	u2021
  2803  07AD  2FAF               	goto	u2020
  2804  07AE                     u2021:
  2805  07AE  2FBA               	goto	l1478
  2806  07AF                     u2020:
  2807  07AF                     l1476:
  2808  07AF  307F               	movlw	127
  2809  07B0  1283               	bcf	3,5	;RP0=0, select bank0
  2810  07B1  1303               	bcf	3,6	;RP1=0, select bank0
  2811  07B2  00E1               	movwf	___flmul@prod+3
  2812  07B3  3080               	movlw	128
  2813  07B4  00E0               	movwf	___flmul@prod+2
  2814  07B5  3000               	movlw	0
  2815  07B6  00DF               	movwf	___flmul@prod+1
  2816  07B7  3000               	movlw	0
  2817  07B8  00DE               	movwf	___flmul@prod
  2818  07B9  2FEF               	goto	l561
  2819  07BA                     l1478:
  2820  07BA  1283               	bcf	3,5	;RP0=0, select bank0
  2821  07BB  1303               	bcf	3,6	;RP1=0, select bank0
  2822  07BC  0863               	movf	___flmul@temp+1,w
  2823  07BD  3A80               	xorlw	128
  2824  07BE  00FF               	movwf	btemp+1
  2825  07BF  3080               	movlw	128
  2826  07C0  027F               	subwf	btemp+1,w
  2827  07C1  1D03               	skipz
  2828  07C2  2FC5               	goto	u2035
  2829  07C3  3001               	movlw	1
  2830  07C4  0262               	subwf	___flmul@temp,w
  2831  07C5                     u2035:
  2832  07C5  1803               	skipnc
  2833  07C6  2FC8               	goto	u2031
  2834  07C7  2FC9               	goto	u2030
  2835  07C8                     u2031:
  2836  07C8  2FD5               	goto	l1484
  2837  07C9                     u2030:
  2838  07C9                     l1480:
  2839  07C9  3000               	movlw	0
  2840  07CA  1283               	bcf	3,5	;RP0=0, select bank0
  2841  07CB  1303               	bcf	3,6	;RP1=0, select bank0
  2842  07CC  00E1               	movwf	___flmul@prod+3
  2843  07CD  3000               	movlw	0
  2844  07CE  00E0               	movwf	___flmul@prod+2
  2845  07CF  3000               	movlw	0
  2846  07D0  00DF               	movwf	___flmul@prod+1
  2847  07D1  3000               	movlw	0
  2848  07D2  00DE               	movwf	___flmul@prod
  2849  07D3                     l1482:
  2850  07D3  01D7               	clrf	___flmul@sign
  2851  07D4  2FEF               	goto	l561
  2852  07D5                     l1484:
  2853  07D5  1283               	bcf	3,5	;RP0=0, select bank0
  2854  07D6  1303               	bcf	3,6	;RP1=0, select bank0
  2855  07D7  0862               	movf	___flmul@temp,w
  2856  07D8  00D2               	movwf	??___flmul
  2857  07D9  0852               	movf	??___flmul,w
  2858  07DA  00DD               	movwf	___flmul@bexp
  2859  07DB  30FF               	movlw	255
  2860  07DC  05DE               	andwf	___flmul@prod,f
  2861  07DD  30FF               	movlw	255
  2862  07DE  05DF               	andwf	___flmul@prod+1,f
  2863  07DF  307F               	movlw	127
  2864  07E0  05E0               	andwf	___flmul@prod+2,f
  2865  07E1  3000               	movlw	0
  2866  07E2  05E1               	andwf	___flmul@prod+3,f
  2867  07E3                     l1486:
  2868  07E3  1C5D               	btfss	___flmul@bexp,0
  2869  07E4  2FE6               	goto	u2041
  2870  07E5  2FE7               	goto	u2040
  2871  07E6                     u2041:
  2872  07E6  2FE8               	goto	l1490
  2873  07E7                     u2040:
  2874  07E7                     l1488:
  2875  07E7  17E0               	bsf	___flmul@prod+2,7
  2876  07E8                     l1490:
  2877  07E8  085D               	movf	___flmul@bexp,w
  2878  07E9  00D2               	movwf	??___flmul
  2879  07EA  1003               	clrc
  2880  07EB  0C52               	rrf	??___flmul,w
  2881  07EC  00D3               	movwf	??___flmul+1
  2882  07ED  0853               	movf	??___flmul+1,w
  2883  07EE  00E1               	movwf	___flmul@prod+3
  2884  07EF                     l561:
  2885  07EF  0857               	movf	___flmul@sign,w
  2886  07F0  00D2               	movwf	??___flmul
  2887  07F1  0852               	movf	??___flmul,w
  2888  07F2  04E1               	iorwf	___flmul@prod+3,f
  2889  07F3                     l1492:
  2890  07F3  0861               	movf	___flmul@prod+3,w
  2891  07F4  00CD               	movwf	?___flmul+3
  2892  07F5  0860               	movf	___flmul@prod+2,w
  2893  07F6  00CC               	movwf	?___flmul+2
  2894  07F7  085F               	movf	___flmul@prod+1,w
  2895  07F8  00CB               	movwf	?___flmul+1
  2896  07F9  085E               	movf	___flmul@prod,w
  2897  07FA  00CA               	movwf	?___flmul
  2898  07FB                     l549:
  2899  07FB  0008               	return
  2900  07FC                     __end_of___flmul:
  2901                           
  2902                           	psect	text10
  2903  0E5C                     __ptext10:	
  2904 ;; *************** function __Umul8_16 *****************
  2905 ;; Defined at:
  2906 ;;		line 4 in file "C:\Program Files\Microchip\xc8\v2.32\pic\sources\c90\common\Umul8_16.c"
  2907 ;; Parameters:    Size  Location     Type
  2908 ;;  multiplier      1    wreg     unsigned char 
  2909 ;;  multiplicand    1    0[COMMON] unsigned char 
  2910 ;; Auto vars:     Size  Location     Type
  2911 ;;  multiplier      1    8[COMMON] unsigned char 
  2912 ;;  word_mpld       2    6[COMMON] unsigned int 
  2913 ;;  product         2    4[COMMON] unsigned int 
  2914 ;; Return value:  Size  Location     Type
  2915 ;;                  2    0[COMMON] unsigned int 
  2916 ;; Registers used:
  2917 ;;		wreg, status,2, status,0
  2918 ;; Tracked objects:
  2919 ;;		On entry : 0/0
  2920 ;;		On exit  : 0/0
  2921 ;;		Unchanged: 0/0
  2922 ;; Data sizes:     COMMON   BANK0   BANK1   BANK3   BANK2
  2923 ;;      Params:         2       0       0       0       0
  2924 ;;      Locals:         5       0       0       0       0
  2925 ;;      Temps:          2       0       0       0       0
  2926 ;;      Totals:         9       0       0       0       0
  2927 ;;Total ram usage:        9 bytes
  2928 ;; Hardware stack levels used: 1
  2929 ;; This function calls:
  2930 ;;		Nothing
  2931 ;; This function is called by:
  2932 ;;		___flmul
  2933 ;; This function uses a non-reentrant model
  2934 ;;
  2935                           
  2936                           
  2937                           ;psect for function __Umul8_16
  2938  0E5C                     __Umul8_16:
  2939                           
  2940                           ;incstack = 0
  2941                           ; Regs used in __Umul8_16: [wreg+status,2+status,0]
  2942                           ;__Umul8_16@multiplier stored from wreg
  2943  0E5C  00F8               	movwf	__Umul8_16@multiplier
  2944  0E5D                     l1124:
  2945  0E5D  01F4               	clrf	__Umul8_16@product
  2946  0E5E  01F5               	clrf	__Umul8_16@product+1
  2947  0E5F                     l1126:
  2948  0E5F  0870               	movf	__Umul8_16@multiplicand,w
  2949  0E60  00F2               	movwf	??__Umul8_16
  2950  0E61  01F3               	clrf	??__Umul8_16+1
  2951  0E62  0872               	movf	??__Umul8_16,w
  2952  0E63  00F6               	movwf	__Umul8_16@word_mpld
  2953  0E64  0873               	movf	??__Umul8_16+1,w
  2954  0E65  00F7               	movwf	__Umul8_16@word_mpld+1
  2955  0E66                     l1128:
  2956  0E66  1C78               	btfss	__Umul8_16@multiplier,0
  2957  0E67  2E69               	goto	u1161
  2958  0E68  2E6A               	goto	u1160
  2959  0E69                     u1161:
  2960  0E69  2E70               	goto	l568
  2961  0E6A                     u1160:
  2962  0E6A                     l1130:
  2963  0E6A  0876               	movf	__Umul8_16@word_mpld,w
  2964  0E6B  07F4               	addwf	__Umul8_16@product,f
  2965  0E6C  1803               	skipnc
  2966  0E6D  0AF5               	incf	__Umul8_16@product+1,f
  2967  0E6E  0877               	movf	__Umul8_16@word_mpld+1,w
  2968  0E6F  07F5               	addwf	__Umul8_16@product+1,f
  2969  0E70                     l568:
  2970  0E70  3001               	movlw	1
  2971  0E71                     u1175:
  2972  0E71  1003               	clrc
  2973  0E72  0DF6               	rlf	__Umul8_16@word_mpld,f
  2974  0E73  0DF7               	rlf	__Umul8_16@word_mpld+1,f
  2975  0E74  3EFF               	addlw	-1
  2976  0E75  1D03               	skipz
  2977  0E76  2E71               	goto	u1175
  2978  0E77  1003               	clrc
  2979  0E78  0CF8               	rrf	__Umul8_16@multiplier,f
  2980  0E79                     l1132:
  2981  0E79  0878               	movf	__Umul8_16@multiplier,w
  2982  0E7A  1D03               	btfss	3,2
  2983  0E7B  2E7D               	goto	u1181
  2984  0E7C  2E7E               	goto	u1180
  2985  0E7D                     u1181:
  2986  0E7D  2E66               	goto	l1128
  2987  0E7E                     u1180:
  2988  0E7E                     l1134:
  2989  0E7E  0875               	movf	__Umul8_16@product+1,w
  2990  0E7F  00F1               	movwf	?__Umul8_16+1
  2991  0E80  0874               	movf	__Umul8_16@product,w
  2992  0E81  00F0               	movwf	?__Umul8_16
  2993  0E82                     l570:
  2994  0E82  0008               	return
  2995  0E83                     __end_of__Umul8_16:
  2996                           
  2997                           	psect	text11
  2998  02BE                     __ptext11:	
  2999 ;; *************** function ___fldiv *****************
  3000 ;; Defined at:
  3001 ;;		line 8 in file "C:\Program Files\Microchip\xc8\v2.32\pic\sources\c90\common\sprcdiv.c"
  3002 ;; Parameters:    Size  Location     Type
  3003 ;;  a               4   16[BANK0 ] unsigned int 
  3004 ;;  b               4   20[BANK0 ] unsigned int 
  3005 ;; Auto vars:     Size  Location     Type
  3006 ;;  grs             4   36[BANK0 ] unsigned long 
  3007 ;;  rem             4   29[BANK0 ] unsigned long 
  3008 ;;  new_exp         2   34[BANK0 ] int 
  3009 ;;  aexp            1   41[BANK0 ] unsigned char 
  3010 ;;  bexp            1   40[BANK0 ] unsigned char 
  3011 ;;  sign            1   33[BANK0 ] unsigned char 
  3012 ;; Return value:  Size  Location     Type
  3013 ;;                  4   16[BANK0 ] unsigned char 
  3014 ;; Registers used:
  3015 ;;		wreg, status,2, status,0, btemp+1
  3016 ;; Tracked objects:
  3017 ;;		On entry : 0/0
  3018 ;;		On exit  : 0/0
  3019 ;;		Unchanged: 0/0
  3020 ;; Data sizes:     COMMON   BANK0   BANK1   BANK3   BANK2
  3021 ;;      Params:         0       8       0       0       0
  3022 ;;      Locals:         0      13       0       0       0
  3023 ;;      Temps:          0       5       0       0       0
  3024 ;;      Totals:         0      26       0       0       0
  3025 ;;Total ram usage:       26 bytes
  3026 ;; Hardware stack levels used: 1
  3027 ;; This function calls:
  3028 ;;		Nothing
  3029 ;; This function is called by:
  3030 ;;		_PWM1_Duty
  3031 ;;		_PWM2_Duty
  3032 ;; This function uses a non-reentrant model
  3033 ;;
  3034                           
  3035                           
  3036                           ;psect for function ___fldiv
  3037  02BE                     ___fldiv:
  3038  02BE                     l1214:	
  3039                           ;incstack = 0
  3040                           ; Regs used in ___fldiv: [wreg+status,2+status,0+btemp+1]
  3041                           
  3042  02BE  1283               	bcf	3,5	;RP0=0, select bank0
  3043  02BF  1303               	bcf	3,6	;RP1=0, select bank0
  3044  02C0  0837               	movf	___fldiv@b+3,w
  3045  02C1  3980               	andlw	128
  3046  02C2  00B8               	movwf	??___fldiv
  3047  02C3  0838               	movf	??___fldiv,w
  3048  02C4  00C1               	movwf	___fldiv@sign
  3049  02C5                     l1216:
  3050  02C5  0837               	movf	___fldiv@b+3,w
  3051  02C6  00B8               	movwf	??___fldiv
  3052  02C7  0738               	addwf	??___fldiv,w
  3053  02C8  00B9               	movwf	??___fldiv+1
  3054  02C9  0839               	movf	??___fldiv+1,w
  3055  02CA  00C8               	movwf	___fldiv@bexp
  3056  02CB                     l1218:
  3057  02CB  1FB6               	btfss	___fldiv@b+2,7
  3058  02CC  2ACE               	goto	u1391
  3059  02CD  2ACF               	goto	u1390
  3060  02CE                     u1391:
  3061  02CE  2AD0               	goto	l1222
  3062  02CF                     u1390:
  3063  02CF                     l1220:
  3064  02CF  1448               	bsf	___fldiv@bexp,0
  3065  02D0                     l1222:
  3066  02D0  0848               	movf	___fldiv@bexp,w
  3067  02D1  1903               	btfsc	3,2
  3068  02D2  2AD4               	goto	u1401
  3069  02D3  2AD5               	goto	u1400
  3070  02D4                     u1401:
  3071  02D4  2AE5               	goto	l1232
  3072  02D5                     u1400:
  3073  02D5                     l1224:
  3074  02D5  0A48               	incf	___fldiv@bexp,w
  3075  02D6  1D03               	btfss	3,2
  3076  02D7  2AD9               	goto	u1411
  3077  02D8  2ADA               	goto	u1410
  3078  02D9                     u1411:
  3079  02D9  2AE2               	goto	l1228
  3080  02DA                     u1410:
  3081  02DA                     l1226:
  3082  02DA  3000               	movlw	0
  3083  02DB  00B7               	movwf	___fldiv@b+3
  3084  02DC  3000               	movlw	0
  3085  02DD  00B6               	movwf	___fldiv@b+2
  3086  02DE  3000               	movlw	0
  3087  02DF  00B5               	movwf	___fldiv@b+1
  3088  02E0  3000               	movlw	0
  3089  02E1  00B4               	movwf	___fldiv@b
  3090  02E2                     l1228:
  3091  02E2  17B6               	bsf	___fldiv@b+2,7
  3092  02E3                     l1230:
  3093  02E3  01B7               	clrf	___fldiv@b+3
  3094  02E4  2AED               	goto	l1234
  3095  02E5                     l1232:
  3096  02E5  3000               	movlw	0
  3097  02E6  00B7               	movwf	___fldiv@b+3
  3098  02E7  3000               	movlw	0
  3099  02E8  00B6               	movwf	___fldiv@b+2
  3100  02E9  3000               	movlw	0
  3101  02EA  00B5               	movwf	___fldiv@b+1
  3102  02EB  3000               	movlw	0
  3103  02EC  00B4               	movwf	___fldiv@b
  3104  02ED                     l1234:
  3105  02ED  0833               	movf	___fldiv@a+3,w
  3106  02EE  3980               	andlw	128
  3107  02EF  00B8               	movwf	??___fldiv
  3108  02F0  0838               	movf	??___fldiv,w
  3109  02F1  06C1               	xorwf	___fldiv@sign,f
  3110  02F2                     l1236:
  3111  02F2  0833               	movf	___fldiv@a+3,w
  3112  02F3  00B8               	movwf	??___fldiv
  3113  02F4  0738               	addwf	??___fldiv,w
  3114  02F5  00B9               	movwf	??___fldiv+1
  3115  02F6  0839               	movf	??___fldiv+1,w
  3116  02F7  00C9               	movwf	___fldiv@aexp
  3117  02F8                     l1238:
  3118  02F8  1FB2               	btfss	___fldiv@a+2,7
  3119  02F9  2AFB               	goto	u1421
  3120  02FA  2AFC               	goto	u1420
  3121  02FB                     u1421:
  3122  02FB  2AFD               	goto	l1242
  3123  02FC                     u1420:
  3124  02FC                     l1240:
  3125  02FC  1449               	bsf	___fldiv@aexp,0
  3126  02FD                     l1242:
  3127  02FD  0849               	movf	___fldiv@aexp,w
  3128  02FE  1903               	btfsc	3,2
  3129  02FF  2B01               	goto	u1431
  3130  0300  2B02               	goto	u1430
  3131  0301                     u1431:
  3132  0301  2B12               	goto	l1252
  3133  0302                     u1430:
  3134  0302                     l1244:
  3135  0302  0A49               	incf	___fldiv@aexp,w
  3136  0303  1D03               	btfss	3,2
  3137  0304  2B06               	goto	u1441
  3138  0305  2B07               	goto	u1440
  3139  0306                     u1441:
  3140  0306  2B0F               	goto	l1248
  3141  0307                     u1440:
  3142  0307                     l1246:
  3143  0307  3000               	movlw	0
  3144  0308  00B3               	movwf	___fldiv@a+3
  3145  0309  3000               	movlw	0
  3146  030A  00B2               	movwf	___fldiv@a+2
  3147  030B  3000               	movlw	0
  3148  030C  00B1               	movwf	___fldiv@a+1
  3149  030D  3000               	movlw	0
  3150  030E  00B0               	movwf	___fldiv@a
  3151  030F                     l1248:
  3152  030F  17B2               	bsf	___fldiv@a+2,7
  3153  0310                     l1250:
  3154  0310  01B3               	clrf	___fldiv@a+3
  3155  0311  2B1A               	goto	l509
  3156  0312                     l1252:
  3157  0312  3000               	movlw	0
  3158  0313  00B3               	movwf	___fldiv@a+3
  3159  0314  3000               	movlw	0
  3160  0315  00B2               	movwf	___fldiv@a+2
  3161  0316  3000               	movlw	0
  3162  0317  00B1               	movwf	___fldiv@a+1
  3163  0318  3000               	movlw	0
  3164  0319  00B0               	movwf	___fldiv@a
  3165  031A                     l509:
  3166  031A  0833               	movf	___fldiv@a+3,w
  3167  031B  0432               	iorwf	___fldiv@a+2,w
  3168  031C  0431               	iorwf	___fldiv@a+1,w
  3169  031D  0430               	iorwf	___fldiv@a,w
  3170  031E  1D03               	skipz
  3171  031F  2B21               	goto	u1451
  3172  0320  2B22               	goto	u1450
  3173  0321                     u1451:
  3174  0321  2B3B               	goto	l1262
  3175  0322                     u1450:
  3176  0322                     l1254:
  3177  0322  3000               	movlw	0
  3178  0323  00B7               	movwf	___fldiv@b+3
  3179  0324  3000               	movlw	0
  3180  0325  00B6               	movwf	___fldiv@b+2
  3181  0326  3000               	movlw	0
  3182  0327  00B5               	movwf	___fldiv@b+1
  3183  0328  3000               	movlw	0
  3184  0329  00B4               	movwf	___fldiv@b
  3185  032A  3080               	movlw	128
  3186  032B  04B6               	iorwf	___fldiv@b+2,f
  3187  032C  307F               	movlw	127
  3188  032D  04B7               	iorwf	___fldiv@b+3,f
  3189  032E                     l1256:
  3190  032E  0841               	movf	___fldiv@sign,w
  3191  032F  00B8               	movwf	??___fldiv
  3192  0330  0838               	movf	??___fldiv,w
  3193  0331  04B7               	iorwf	___fldiv@b+3,f
  3194  0332                     l1258:
  3195  0332  0837               	movf	___fldiv@b+3,w
  3196  0333  00B3               	movwf	?___fldiv+3
  3197  0334  0836               	movf	___fldiv@b+2,w
  3198  0335  00B2               	movwf	?___fldiv+2
  3199  0336  0835               	movf	___fldiv@b+1,w
  3200  0337  00B1               	movwf	?___fldiv+1
  3201  0338  0834               	movf	___fldiv@b,w
  3202  0339  00B0               	movwf	?___fldiv
  3203  033A  2C9A               	goto	l511
  3204  033B                     l1262:
  3205  033B  0848               	movf	___fldiv@bexp,w
  3206  033C  1D03               	btfss	3,2
  3207  033D  2B3F               	goto	u1461
  3208  033E  2B40               	goto	u1460
  3209  033F                     u1461:
  3210  033F  2B49               	goto	l1268
  3211  0340                     u1460:
  3212  0340                     l1264:
  3213  0340  3000               	movlw	0
  3214  0341  00B3               	movwf	?___fldiv+3
  3215  0342  3000               	movlw	0
  3216  0343  00B2               	movwf	?___fldiv+2
  3217  0344  3000               	movlw	0
  3218  0345  00B1               	movwf	?___fldiv+1
  3219  0346  3000               	movlw	0
  3220  0347  00B0               	movwf	?___fldiv
  3221  0348  2C9A               	goto	l511
  3222  0349                     l1268:
  3223  0349  0848               	movf	___fldiv@bexp,w
  3224  034A  00B8               	movwf	??___fldiv
  3225  034B  01B9               	clrf	??___fldiv+1
  3226  034C  0839               	movf	??___fldiv+1,w
  3227  034D  00BB               	movwf	??___fldiv+3
  3228  034E  0849               	movf	___fldiv@aexp,w
  3229  034F  0238               	subwf	??___fldiv,w
  3230  0350  00BA               	movwf	??___fldiv+2
  3231  0351  1C03               	skipc
  3232  0352  03BB               	decf	??___fldiv+3,f
  3233  0353  083A               	movf	??___fldiv+2,w
  3234  0354  3E7F               	addlw	127
  3235  0355  00C2               	movwf	___fldiv@new_exp
  3236  0356  083B               	movf	??___fldiv+3,w
  3237  0357  1803               	skipnc
  3238  0358  3E01               	addlw	1
  3239  0359  3E00               	addlw	0
  3240  035A  00C3               	movwf	___fldiv@new_exp+1
  3241  035B                     l1270:
  3242  035B  0837               	movf	___fldiv@b+3,w
  3243  035C  00C0               	movwf	___fldiv@rem+3
  3244  035D  0836               	movf	___fldiv@b+2,w
  3245  035E  00BF               	movwf	___fldiv@rem+2
  3246  035F  0835               	movf	___fldiv@b+1,w
  3247  0360  00BE               	movwf	___fldiv@rem+1
  3248  0361  0834               	movf	___fldiv@b,w
  3249  0362  00BD               	movwf	___fldiv@rem
  3250  0363                     l1272:
  3251  0363  3000               	movlw	0
  3252  0364  00B7               	movwf	___fldiv@b+3
  3253  0365  3000               	movlw	0
  3254  0366  00B6               	movwf	___fldiv@b+2
  3255  0367  3000               	movlw	0
  3256  0368  00B5               	movwf	___fldiv@b+1
  3257  0369  3000               	movlw	0
  3258  036A  00B4               	movwf	___fldiv@b
  3259  036B                     l1274:
  3260  036B  3000               	movlw	0
  3261  036C  00C7               	movwf	___fldiv@grs+3
  3262  036D  3000               	movlw	0
  3263  036E  00C6               	movwf	___fldiv@grs+2
  3264  036F  3000               	movlw	0
  3265  0370  00C5               	movwf	___fldiv@grs+1
  3266  0371  3000               	movlw	0
  3267  0372  00C4               	movwf	___fldiv@grs
  3268  0373                     l1276:
  3269  0373  01C9               	clrf	___fldiv@aexp
  3270  0374  2BBF               	goto	l1296
  3271  0375                     l1278:
  3272  0375  0849               	movf	___fldiv@aexp,w
  3273  0376  1903               	btfsc	3,2
  3274  0377  2B79               	goto	u1471
  3275  0378  2B7A               	goto	u1470
  3276  0379                     u1471:
  3277  0379  2B9A               	goto	l1288
  3278  037A                     u1470:
  3279  037A                     l1280:
  3280  037A  3001               	movlw	1
  3281  037B  00B8               	movwf	??___fldiv
  3282  037C                     u1485:
  3283  037C  1003               	clrc
  3284  037D  0DBD               	rlf	___fldiv@rem,f
  3285  037E  0DBE               	rlf	___fldiv@rem+1,f
  3286  037F  0DBF               	rlf	___fldiv@rem+2,f
  3287  0380  0DC0               	rlf	___fldiv@rem+3,f
  3288  0381  0BB8               	decfsz	??___fldiv,f
  3289  0382  2B7C               	goto	u1485
  3290  0383  3001               	movlw	1
  3291  0384  00B8               	movwf	??___fldiv
  3292  0385                     u1495:
  3293  0385  1003               	clrc
  3294  0386  0DB4               	rlf	___fldiv@b,f
  3295  0387  0DB5               	rlf	___fldiv@b+1,f
  3296  0388  0DB6               	rlf	___fldiv@b+2,f
  3297  0389  0DB7               	rlf	___fldiv@b+3,f
  3298  038A  0BB8               	decfsz	??___fldiv,f
  3299  038B  2B85               	goto	u1495
  3300  038C                     l1282:
  3301  038C  1FC7               	btfss	___fldiv@grs+3,7
  3302  038D  2B8F               	goto	u1501
  3303  038E  2B90               	goto	u1500
  3304  038F                     u1501:
  3305  038F  2B91               	goto	l1286
  3306  0390                     u1500:
  3307  0390                     l1284:
  3308  0390  1434               	bsf	___fldiv@b,0
  3309  0391                     l1286:
  3310  0391  3001               	movlw	1
  3311  0392  00B8               	movwf	??___fldiv
  3312  0393                     u1515:
  3313  0393  1003               	clrc
  3314  0394  0DC4               	rlf	___fldiv@grs,f
  3315  0395  0DC5               	rlf	___fldiv@grs+1,f
  3316  0396  0DC6               	rlf	___fldiv@grs+2,f
  3317  0397  0DC7               	rlf	___fldiv@grs+3,f
  3318  0398  0BB8               	decfsz	??___fldiv,f
  3319  0399  2B93               	goto	u1515
  3320  039A                     l1288:
  3321  039A  0833               	movf	___fldiv@a+3,w
  3322  039B  0240               	subwf	___fldiv@rem+3,w
  3323  039C  1D03               	skipz
  3324  039D  2BA8               	goto	u1525
  3325  039E  0832               	movf	___fldiv@a+2,w
  3326  039F  023F               	subwf	___fldiv@rem+2,w
  3327  03A0  1D03               	skipz
  3328  03A1  2BA8               	goto	u1525
  3329  03A2  0831               	movf	___fldiv@a+1,w
  3330  03A3  023E               	subwf	___fldiv@rem+1,w
  3331  03A4  1D03               	skipz
  3332  03A5  2BA8               	goto	u1525
  3333  03A6  0830               	movf	___fldiv@a,w
  3334  03A7  023D               	subwf	___fldiv@rem,w
  3335  03A8                     u1525:
  3336  03A8  1C03               	skipc
  3337  03A9  2BAB               	goto	u1521
  3338  03AA  2BAC               	goto	u1520
  3339  03AB                     u1521:
  3340  03AB  2BBB               	goto	l1294
  3341  03AC                     u1520:
  3342  03AC                     l1290:
  3343  03AC  1747               	bsf	___fldiv@grs+3,6
  3344  03AD                     l1292:
  3345  03AD  0830               	movf	___fldiv@a,w
  3346  03AE  02BD               	subwf	___fldiv@rem,f
  3347  03AF  0831               	movf	___fldiv@a+1,w
  3348  03B0  1C03               	skipc
  3349  03B1  0F31               	incfsz	___fldiv@a+1,w
  3350  03B2  02BE               	subwf	___fldiv@rem+1,f
  3351  03B3  0832               	movf	___fldiv@a+2,w
  3352  03B4  1C03               	skipc
  3353  03B5  0F32               	incfsz	___fldiv@a+2,w
  3354  03B6  02BF               	subwf	___fldiv@rem+2,f
  3355  03B7  0833               	movf	___fldiv@a+3,w
  3356  03B8  1C03               	skipc
  3357  03B9  0F33               	incfsz	___fldiv@a+3,w
  3358  03BA  02C0               	subwf	___fldiv@rem+3,f
  3359  03BB                     l1294:
  3360  03BB  3001               	movlw	1
  3361  03BC  00B8               	movwf	??___fldiv
  3362  03BD  0838               	movf	??___fldiv,w
  3363  03BE  07C9               	addwf	___fldiv@aexp,f
  3364  03BF                     l1296:
  3365  03BF  301A               	movlw	26
  3366  03C0  0249               	subwf	___fldiv@aexp,w
  3367  03C1  1C03               	skipc
  3368  03C2  2BC4               	goto	u1531
  3369  03C3  2BC5               	goto	u1530
  3370  03C4                     u1531:
  3371  03C4  2B75               	goto	l1278
  3372  03C5                     u1530:
  3373  03C5                     l1298:
  3374  03C5  0840               	movf	___fldiv@rem+3,w
  3375  03C6  043F               	iorwf	___fldiv@rem+2,w
  3376  03C7  043E               	iorwf	___fldiv@rem+1,w
  3377  03C8  043D               	iorwf	___fldiv@rem,w
  3378  03C9  1903               	skipnz
  3379  03CA  2BCC               	goto	u1541
  3380  03CB  2BCD               	goto	u1540
  3381  03CC                     u1541:
  3382  03CC  2BEC               	goto	l1312
  3383  03CD                     u1540:
  3384  03CD                     l1300:
  3385  03CD  1444               	bsf	___fldiv@grs,0
  3386  03CE  2BEC               	goto	l1312
  3387  03CF                     l1302:
  3388  03CF  3001               	movlw	1
  3389  03D0  00B8               	movwf	??___fldiv
  3390  03D1                     u1555:
  3391  03D1  1003               	clrc
  3392  03D2  0DB4               	rlf	___fldiv@b,f
  3393  03D3  0DB5               	rlf	___fldiv@b+1,f
  3394  03D4  0DB6               	rlf	___fldiv@b+2,f
  3395  03D5  0DB7               	rlf	___fldiv@b+3,f
  3396  03D6  0BB8               	decfsz	??___fldiv,f
  3397  03D7  2BD1               	goto	u1555
  3398  03D8                     l1304:
  3399  03D8  1FC7               	btfss	___fldiv@grs+3,7
  3400  03D9  2BDB               	goto	u1561
  3401  03DA  2BDC               	goto	u1560
  3402  03DB                     u1561:
  3403  03DB  2BDD               	goto	l1308
  3404  03DC                     u1560:
  3405  03DC                     l1306:
  3406  03DC  1434               	bsf	___fldiv@b,0
  3407  03DD                     l1308:
  3408  03DD  3001               	movlw	1
  3409  03DE  00B8               	movwf	??___fldiv
  3410  03DF                     u1575:
  3411  03DF  1003               	clrc
  3412  03E0  0DC4               	rlf	___fldiv@grs,f
  3413  03E1  0DC5               	rlf	___fldiv@grs+1,f
  3414  03E2  0DC6               	rlf	___fldiv@grs+2,f
  3415  03E3  0DC7               	rlf	___fldiv@grs+3,f
  3416  03E4  0BB8               	decfsz	??___fldiv,f
  3417  03E5  2BDF               	goto	u1575
  3418  03E6                     l1310:
  3419  03E6  30FF               	movlw	255
  3420  03E7  07C2               	addwf	___fldiv@new_exp,f
  3421  03E8  1803               	skipnc
  3422  03E9  0AC3               	incf	___fldiv@new_exp+1,f
  3423  03EA  30FF               	movlw	255
  3424  03EB  07C3               	addwf	___fldiv@new_exp+1,f
  3425  03EC                     l1312:
  3426  03EC  1FB6               	btfss	___fldiv@b+2,7
  3427  03ED  2BEF               	goto	u1581
  3428  03EE  2BF0               	goto	u1580
  3429  03EF                     u1581:
  3430  03EF  2BCF               	goto	l1302
  3431  03F0                     u1580:
  3432  03F0                     l1314:
  3433  03F0  01C9               	clrf	___fldiv@aexp
  3434  03F1                     l1316:
  3435  03F1  1FC7               	btfss	___fldiv@grs+3,7
  3436  03F2  2BF4               	goto	u1591
  3437  03F3  2BF5               	goto	u1590
  3438  03F4                     u1591:
  3439  03F4  2C11               	goto	l1324
  3440  03F5                     u1590:
  3441  03F5                     l1318:
  3442  03F5  30FF               	movlw	255
  3443  03F6  0544               	andwf	___fldiv@grs,w
  3444  03F7  00B8               	movwf	??___fldiv
  3445  03F8  30FF               	movlw	255
  3446  03F9  0545               	andwf	___fldiv@grs+1,w
  3447  03FA  00B9               	movwf	??___fldiv+1
  3448  03FB  30FF               	movlw	255
  3449  03FC  0546               	andwf	___fldiv@grs+2,w
  3450  03FD  00BA               	movwf	??___fldiv+2
  3451  03FE  307F               	movlw	127
  3452  03FF  0547               	andwf	___fldiv@grs+3,w
  3453  0400  00BB               	movwf	??___fldiv+3
  3454  0401  083B               	movf	??___fldiv+3,w
  3455  0402  043A               	iorwf	??___fldiv+2,w
  3456  0403  0439               	iorwf	??___fldiv+1,w
  3457  0404  0438               	iorwf	??___fldiv,w
  3458  0405  1903               	skipnz
  3459  0406  2C08               	goto	u1601
  3460  0407  2C09               	goto	u1600
  3461  0408                     u1601:
  3462  0408  2C0C               	goto	l525
  3463  0409                     u1600:
  3464  0409                     l1320:
  3465  0409  01C9               	clrf	___fldiv@aexp
  3466  040A  0AC9               	incf	___fldiv@aexp,f
  3467  040B  2C11               	goto	l1324
  3468  040C                     l525:
  3469  040C  1C34               	btfss	___fldiv@b,0
  3470  040D  2C0F               	goto	u1611
  3471  040E  2C10               	goto	u1610
  3472  040F                     u1611:
  3473  040F  2C11               	goto	l1324
  3474  0410                     u1610:
  3475  0410  2C09               	goto	l1320
  3476  0411                     l1324:
  3477  0411  0849               	movf	___fldiv@aexp,w
  3478  0412  1903               	btfsc	3,2
  3479  0413  2C15               	goto	u1621
  3480  0414  2C16               	goto	u1620
  3481  0415                     u1621:
  3482  0415  2C47               	goto	l1334
  3483  0416                     u1620:
  3484  0416                     l1326:
  3485  0416  3001               	movlw	1
  3486  0417  07B4               	addwf	___fldiv@b,f
  3487  0418  3000               	movlw	0
  3488  0419  1803               	skipnc
  3489  041A  3001               	movlw	1
  3490  041B  07B5               	addwf	___fldiv@b+1,f
  3491  041C  3000               	movlw	0
  3492  041D  1803               	skipnc
  3493  041E  3001               	movlw	1
  3494  041F  07B6               	addwf	___fldiv@b+2,f
  3495  0420  3000               	movlw	0
  3496  0421  1803               	skipnc
  3497  0422  3001               	movlw	1
  3498  0423  07B7               	addwf	___fldiv@b+3,f
  3499  0424                     l1328:
  3500  0424  1C37               	btfss	___fldiv@b+3,0
  3501  0425  2C27               	goto	u1631
  3502  0426  2C28               	goto	u1630
  3503  0427                     u1631:
  3504  0427  2C47               	goto	l1334
  3505  0428                     u1630:
  3506  0428                     l1330:
  3507  0428  0834               	movf	___fldiv@b,w
  3508  0429  00B8               	movwf	??___fldiv
  3509  042A  0835               	movf	___fldiv@b+1,w
  3510  042B  00B9               	movwf	??___fldiv+1
  3511  042C  0836               	movf	___fldiv@b+2,w
  3512  042D  00BA               	movwf	??___fldiv+2
  3513  042E  0837               	movf	___fldiv@b+3,w
  3514  042F  00BB               	movwf	??___fldiv+3
  3515  0430  3001               	movlw	1
  3516  0431  00BC               	movwf	??___fldiv+4
  3517  0432                     u1645:
  3518  0432  0D3B               	rlf	??___fldiv+3,w
  3519  0433  0CBB               	rrf	??___fldiv+3,f
  3520  0434  0CBA               	rrf	??___fldiv+2,f
  3521  0435  0CB9               	rrf	??___fldiv+1,f
  3522  0436  0CB8               	rrf	??___fldiv,f
  3523  0437                     u1640:
  3524  0437  0BBC               	decfsz	??___fldiv+4,f
  3525  0438  2C32               	goto	u1645
  3526  0439  083B               	movf	??___fldiv+3,w
  3527  043A  00B7               	movwf	___fldiv@b+3
  3528  043B  083A               	movf	??___fldiv+2,w
  3529  043C  00B6               	movwf	___fldiv@b+2
  3530  043D  0839               	movf	??___fldiv+1,w
  3531  043E  00B5               	movwf	___fldiv@b+1
  3532  043F  0838               	movf	??___fldiv,w
  3533  0440  00B4               	movwf	___fldiv@b
  3534  0441                     l1332:
  3535  0441  3001               	movlw	1
  3536  0442  07C2               	addwf	___fldiv@new_exp,f
  3537  0443  1803               	skipnc
  3538  0444  0AC3               	incf	___fldiv@new_exp+1,f
  3539  0445  3000               	movlw	0
  3540  0446  07C3               	addwf	___fldiv@new_exp+1,f
  3541  0447                     l1334:
  3542  0447  0843               	movf	___fldiv@new_exp+1,w
  3543  0448  3A80               	xorlw	128
  3544  0449  00FF               	movwf	btemp+1
  3545  044A  3080               	movlw	128
  3546  044B  027F               	subwf	btemp+1,w
  3547  044C  1D03               	skipz
  3548  044D  2C50               	goto	u1655
  3549  044E  30FF               	movlw	255
  3550  044F  0242               	subwf	___fldiv@new_exp,w
  3551  0450                     u1655:
  3552  0450  1C03               	skipc
  3553  0451  2C53               	goto	u1651
  3554  0452  2C54               	goto	u1650
  3555  0453                     u1651:
  3556  0453  2C62               	goto	l1338
  3557  0454                     u1650:
  3558  0454                     l1336:
  3559  0454  30FF               	movlw	255
  3560  0455  1283               	bcf	3,5	;RP0=0, select bank0
  3561  0456  1303               	bcf	3,6	;RP1=0, select bank0
  3562  0457  00C2               	movwf	___fldiv@new_exp
  3563  0458  3000               	movlw	0
  3564  0459  00C3               	movwf	___fldiv@new_exp+1
  3565  045A  3000               	movlw	0
  3566  045B  00B7               	movwf	___fldiv@b+3
  3567  045C  3000               	movlw	0
  3568  045D  00B6               	movwf	___fldiv@b+2
  3569  045E  3000               	movlw	0
  3570  045F  00B5               	movwf	___fldiv@b+1
  3571  0460  3000               	movlw	0
  3572  0461  00B4               	movwf	___fldiv@b
  3573  0462                     l1338:
  3574  0462  1283               	bcf	3,5	;RP0=0, select bank0
  3575  0463  1303               	bcf	3,6	;RP1=0, select bank0
  3576  0464  0843               	movf	___fldiv@new_exp+1,w
  3577  0465  3A80               	xorlw	128
  3578  0466  00FF               	movwf	btemp+1
  3579  0467  3080               	movlw	128
  3580  0468  027F               	subwf	btemp+1,w
  3581  0469  1D03               	skipz
  3582  046A  2C6D               	goto	u1665
  3583  046B  3001               	movlw	1
  3584  046C  0242               	subwf	___fldiv@new_exp,w
  3585  046D                     u1665:
  3586  046D  1803               	skipnc
  3587  046E  2C70               	goto	u1661
  3588  046F  2C71               	goto	u1660
  3589  0470                     u1661:
  3590  0470  2C7E               	goto	l531
  3591  0471                     u1660:
  3592  0471                     l1340:
  3593  0471  1283               	bcf	3,5	;RP0=0, select bank0
  3594  0472  1303               	bcf	3,6	;RP1=0, select bank0
  3595  0473  01C2               	clrf	___fldiv@new_exp
  3596  0474  01C3               	clrf	___fldiv@new_exp+1
  3597  0475                     l1342:
  3598  0475  3000               	movlw	0
  3599  0476  00B7               	movwf	___fldiv@b+3
  3600  0477  3000               	movlw	0
  3601  0478  00B6               	movwf	___fldiv@b+2
  3602  0479  3000               	movlw	0
  3603  047A  00B5               	movwf	___fldiv@b+1
  3604  047B  3000               	movlw	0
  3605  047C  00B4               	movwf	___fldiv@b
  3606  047D                     l1344:
  3607  047D  01C1               	clrf	___fldiv@sign
  3608  047E                     l531:
  3609  047E  1283               	bcf	3,5	;RP0=0, select bank0
  3610  047F  1303               	bcf	3,6	;RP1=0, select bank0
  3611  0480  0842               	movf	___fldiv@new_exp,w
  3612  0481  00B8               	movwf	??___fldiv
  3613  0482  0838               	movf	??___fldiv,w
  3614  0483  00C8               	movwf	___fldiv@bexp
  3615  0484                     l1346:
  3616  0484  1C48               	btfss	___fldiv@bexp,0
  3617  0485  2C87               	goto	u1671
  3618  0486  2C88               	goto	u1670
  3619  0487                     u1671:
  3620  0487  2C8A               	goto	l1350
  3621  0488                     u1670:
  3622  0488                     l1348:
  3623  0488  17B6               	bsf	___fldiv@b+2,7
  3624  0489  2C8E               	goto	l533
  3625  048A                     l1350:
  3626  048A  307F               	movlw	127
  3627  048B  00B8               	movwf	??___fldiv
  3628  048C  0838               	movf	??___fldiv,w
  3629  048D  05B6               	andwf	___fldiv@b+2,f
  3630  048E                     l533:
  3631  048E  0848               	movf	___fldiv@bexp,w
  3632  048F  00B8               	movwf	??___fldiv
  3633  0490  1003               	clrc
  3634  0491  0C38               	rrf	??___fldiv,w
  3635  0492  00B9               	movwf	??___fldiv+1
  3636  0493  0839               	movf	??___fldiv+1,w
  3637  0494  00B7               	movwf	___fldiv@b+3
  3638  0495  0841               	movf	___fldiv@sign,w
  3639  0496  00B8               	movwf	??___fldiv
  3640  0497  0838               	movf	??___fldiv,w
  3641  0498  04B7               	iorwf	___fldiv@b+3,f
  3642  0499  2B32               	goto	l1258
  3643  049A                     l511:
  3644  049A  0008               	return
  3645  049B                     __end_of___fldiv:
  3646                           
  3647                           	psect	text12
  3648  0F63                     __ptext12:	
  3649 ;; *************** function ___aldiv *****************
  3650 ;; Defined at:
  3651 ;;		line 5 in file "C:\Program Files\Microchip\xc8\v2.32\pic\sources\c90\common\aldiv.c"
  3652 ;; Parameters:    Size  Location     Type
  3653 ;;  divisor         4    0[COMMON] long 
  3654 ;;  dividend        4    4[COMMON] long 
  3655 ;; Auto vars:     Size  Location     Type
  3656 ;;  quotient        4    2[BANK0 ] long 
  3657 ;;  sign            1    1[BANK0 ] unsigned char 
  3658 ;;  counter         1    0[BANK0 ] unsigned char 
  3659 ;; Return value:  Size  Location     Type
  3660 ;;                  4    0[COMMON] long 
  3661 ;; Registers used:
  3662 ;;		wreg, status,2, status,0
  3663 ;; Tracked objects:
  3664 ;;		On entry : 0/0
  3665 ;;		On exit  : 0/0
  3666 ;;		Unchanged: 0/0
  3667 ;; Data sizes:     COMMON   BANK0   BANK1   BANK3   BANK2
  3668 ;;      Params:         8       0       0       0       0
  3669 ;;      Locals:         0       6       0       0       0
  3670 ;;      Temps:          1       0       0       0       0
  3671 ;;      Totals:         9       6       0       0       0
  3672 ;;Total ram usage:       15 bytes
  3673 ;; Hardware stack levels used: 1
  3674 ;; This function calls:
  3675 ;;		Nothing
  3676 ;; This function is called by:
  3677 ;;		_PWM1_Init
  3678 ;;		_PWM2_Init
  3679 ;;		_PWM1_Duty
  3680 ;;		_PWM2_Duty
  3681 ;; This function uses a non-reentrant model
  3682 ;;
  3683                           
  3684                           
  3685                           ;psect for function ___aldiv
  3686  0F63                     ___aldiv:
  3687  0F63                     l1138:	
  3688                           ;incstack = 0
  3689                           ; Regs used in ___aldiv: [wreg+status,2+status,0]
  3690                           
  3691  0F63  1283               	bcf	3,5	;RP0=0, select bank0
  3692  0F64  1303               	bcf	3,6	;RP1=0, select bank0
  3693  0F65  01A1               	clrf	___aldiv@sign
  3694  0F66                     l1140:
  3695  0F66  1FF3               	btfss	___aldiv@divisor+3,7
  3696  0F67  2F69               	goto	u1191
  3697  0F68  2F6A               	goto	u1190
  3698  0F69                     u1191:
  3699  0F69  2F77               	goto	l225
  3700  0F6A                     u1190:
  3701  0F6A                     l1142:
  3702  0F6A  09F0               	comf	___aldiv@divisor,f
  3703  0F6B  09F1               	comf	___aldiv@divisor+1,f
  3704  0F6C  09F2               	comf	___aldiv@divisor+2,f
  3705  0F6D  09F3               	comf	___aldiv@divisor+3,f
  3706  0F6E  0AF0               	incf	___aldiv@divisor,f
  3707  0F6F  1903               	skipnz
  3708  0F70  0AF1               	incf	___aldiv@divisor+1,f
  3709  0F71  1903               	skipnz
  3710  0F72  0AF2               	incf	___aldiv@divisor+2,f
  3711  0F73  1903               	skipnz
  3712  0F74  0AF3               	incf	___aldiv@divisor+3,f
  3713  0F75  01A1               	clrf	___aldiv@sign
  3714  0F76  0AA1               	incf	___aldiv@sign,f
  3715  0F77                     l225:
  3716  0F77  1FF7               	btfss	___aldiv@dividend+3,7
  3717  0F78  2F7A               	goto	u1201
  3718  0F79  2F7B               	goto	u1200
  3719  0F7A                     u1201:
  3720  0F7A  2F8A               	goto	l1148
  3721  0F7B                     u1200:
  3722  0F7B                     l1144:
  3723  0F7B  09F4               	comf	___aldiv@dividend,f
  3724  0F7C  09F5               	comf	___aldiv@dividend+1,f
  3725  0F7D  09F6               	comf	___aldiv@dividend+2,f
  3726  0F7E  09F7               	comf	___aldiv@dividend+3,f
  3727  0F7F  0AF4               	incf	___aldiv@dividend,f
  3728  0F80  1903               	skipnz
  3729  0F81  0AF5               	incf	___aldiv@dividend+1,f
  3730  0F82  1903               	skipnz
  3731  0F83  0AF6               	incf	___aldiv@dividend+2,f
  3732  0F84  1903               	skipnz
  3733  0F85  0AF7               	incf	___aldiv@dividend+3,f
  3734  0F86                     l1146:
  3735  0F86  3001               	movlw	1
  3736  0F87  00F8               	movwf	??___aldiv
  3737  0F88  0878               	movf	??___aldiv,w
  3738  0F89  06A1               	xorwf	___aldiv@sign,f
  3739  0F8A                     l1148:
  3740  0F8A  3000               	movlw	0
  3741  0F8B  00A5               	movwf	___aldiv@quotient+3
  3742  0F8C  3000               	movlw	0
  3743  0F8D  00A4               	movwf	___aldiv@quotient+2
  3744  0F8E  3000               	movlw	0
  3745  0F8F  00A3               	movwf	___aldiv@quotient+1
  3746  0F90  3000               	movlw	0
  3747  0F91  00A2               	movwf	___aldiv@quotient
  3748  0F92                     l1150:
  3749  0F92  0873               	movf	___aldiv@divisor+3,w
  3750  0F93  0472               	iorwf	___aldiv@divisor+2,w
  3751  0F94  0471               	iorwf	___aldiv@divisor+1,w
  3752  0F95  0470               	iorwf	___aldiv@divisor,w
  3753  0F96  1903               	skipnz
  3754  0F97  2F99               	goto	u1211
  3755  0F98  2F9A               	goto	u1210
  3756  0F99                     u1211:
  3757  0F99  2FE7               	goto	l1170
  3758  0F9A                     u1210:
  3759  0F9A                     l1152:
  3760  0F9A  01A0               	clrf	___aldiv@counter
  3761  0F9B  0AA0               	incf	___aldiv@counter,f
  3762  0F9C  2FAA               	goto	l1156
  3763  0F9D                     l1154:
  3764  0F9D  3001               	movlw	1
  3765  0F9E  00F8               	movwf	??___aldiv
  3766  0F9F                     u1225:
  3767  0F9F  1003               	clrc
  3768  0FA0  0DF0               	rlf	___aldiv@divisor,f
  3769  0FA1  0DF1               	rlf	___aldiv@divisor+1,f
  3770  0FA2  0DF2               	rlf	___aldiv@divisor+2,f
  3771  0FA3  0DF3               	rlf	___aldiv@divisor+3,f
  3772  0FA4  0BF8               	decfsz	??___aldiv,f
  3773  0FA5  2F9F               	goto	u1225
  3774  0FA6  3001               	movlw	1
  3775  0FA7  00F8               	movwf	??___aldiv
  3776  0FA8  0878               	movf	??___aldiv,w
  3777  0FA9  07A0               	addwf	___aldiv@counter,f
  3778  0FAA                     l1156:
  3779  0FAA  1FF3               	btfss	___aldiv@divisor+3,7
  3780  0FAB  2FAD               	goto	u1231
  3781  0FAC  2FAE               	goto	u1230
  3782  0FAD                     u1231:
  3783  0FAD  2F9D               	goto	l1154
  3784  0FAE                     u1230:
  3785  0FAE                     l1158:
  3786  0FAE  3001               	movlw	1
  3787  0FAF  00F8               	movwf	??___aldiv
  3788  0FB0                     u1245:
  3789  0FB0  1003               	clrc
  3790  0FB1  0DA2               	rlf	___aldiv@quotient,f
  3791  0FB2  0DA3               	rlf	___aldiv@quotient+1,f
  3792  0FB3  0DA4               	rlf	___aldiv@quotient+2,f
  3793  0FB4  0DA5               	rlf	___aldiv@quotient+3,f
  3794  0FB5  0BF8               	decfsz	??___aldiv,f
  3795  0FB6  2FB0               	goto	u1245
  3796  0FB7                     l1160:
  3797  0FB7  0873               	movf	___aldiv@divisor+3,w
  3798  0FB8  0277               	subwf	___aldiv@dividend+3,w
  3799  0FB9  1D03               	skipz
  3800  0FBA  2FC5               	goto	u1255
  3801  0FBB  0872               	movf	___aldiv@divisor+2,w
  3802  0FBC  0276               	subwf	___aldiv@dividend+2,w
  3803  0FBD  1D03               	skipz
  3804  0FBE  2FC5               	goto	u1255
  3805  0FBF  0871               	movf	___aldiv@divisor+1,w
  3806  0FC0  0275               	subwf	___aldiv@dividend+1,w
  3807  0FC1  1D03               	skipz
  3808  0FC2  2FC5               	goto	u1255
  3809  0FC3  0870               	movf	___aldiv@divisor,w
  3810  0FC4  0274               	subwf	___aldiv@dividend,w
  3811  0FC5                     u1255:
  3812  0FC5  1C03               	skipc
  3813  0FC6  2FC8               	goto	u1251
  3814  0FC7  2FC9               	goto	u1250
  3815  0FC8                     u1251:
  3816  0FC8  2FD8               	goto	l1166
  3817  0FC9                     u1250:
  3818  0FC9                     l1162:
  3819  0FC9  0870               	movf	___aldiv@divisor,w
  3820  0FCA  02F4               	subwf	___aldiv@dividend,f
  3821  0FCB  0871               	movf	___aldiv@divisor+1,w
  3822  0FCC  1C03               	skipc
  3823  0FCD  0F71               	incfsz	___aldiv@divisor+1,w
  3824  0FCE  02F5               	subwf	___aldiv@dividend+1,f
  3825  0FCF  0872               	movf	___aldiv@divisor+2,w
  3826  0FD0  1C03               	skipc
  3827  0FD1  0F72               	incfsz	___aldiv@divisor+2,w
  3828  0FD2  02F6               	subwf	___aldiv@dividend+2,f
  3829  0FD3  0873               	movf	___aldiv@divisor+3,w
  3830  0FD4  1C03               	skipc
  3831  0FD5  0F73               	incfsz	___aldiv@divisor+3,w
  3832  0FD6  02F7               	subwf	___aldiv@dividend+3,f
  3833  0FD7                     l1164:
  3834  0FD7  1422               	bsf	___aldiv@quotient,0
  3835  0FD8                     l1166:
  3836  0FD8  3001               	movlw	1
  3837  0FD9                     u1265:
  3838  0FD9  1003               	clrc
  3839  0FDA  0CF3               	rrf	___aldiv@divisor+3,f
  3840  0FDB  0CF2               	rrf	___aldiv@divisor+2,f
  3841  0FDC  0CF1               	rrf	___aldiv@divisor+1,f
  3842  0FDD  0CF0               	rrf	___aldiv@divisor,f
  3843  0FDE  3EFF               	addlw	-1
  3844  0FDF  1D03               	skipz
  3845  0FE0  2FD9               	goto	u1265
  3846  0FE1                     l1168:
  3847  0FE1  3001               	movlw	1
  3848  0FE2  02A0               	subwf	___aldiv@counter,f
  3849  0FE3  1D03               	btfss	3,2
  3850  0FE4  2FE6               	goto	u1271
  3851  0FE5  2FE7               	goto	u1270
  3852  0FE6                     u1271:
  3853  0FE6  2FAE               	goto	l1158
  3854  0FE7                     u1270:
  3855  0FE7                     l1170:
  3856  0FE7  0821               	movf	___aldiv@sign,w
  3857  0FE8  1903               	btfsc	3,2
  3858  0FE9  2FEB               	goto	u1281
  3859  0FEA  2FEC               	goto	u1280
  3860  0FEB                     u1281:
  3861  0FEB  2FF7               	goto	l1174
  3862  0FEC                     u1280:
  3863  0FEC                     l1172:
  3864  0FEC  09A2               	comf	___aldiv@quotient,f
  3865  0FED  09A3               	comf	___aldiv@quotient+1,f
  3866  0FEE  09A4               	comf	___aldiv@quotient+2,f
  3867  0FEF  09A5               	comf	___aldiv@quotient+3,f
  3868  0FF0  0AA2               	incf	___aldiv@quotient,f
  3869  0FF1  1903               	skipnz
  3870  0FF2  0AA3               	incf	___aldiv@quotient+1,f
  3871  0FF3  1903               	skipnz
  3872  0FF4  0AA4               	incf	___aldiv@quotient+2,f
  3873  0FF5  1903               	skipnz
  3874  0FF6  0AA5               	incf	___aldiv@quotient+3,f
  3875  0FF7                     l1174:
  3876  0FF7  0825               	movf	___aldiv@quotient+3,w
  3877  0FF8  00F3               	movwf	?___aldiv+3
  3878  0FF9  0824               	movf	___aldiv@quotient+2,w
  3879  0FFA  00F2               	movwf	?___aldiv+2
  3880  0FFB  0823               	movf	___aldiv@quotient+1,w
  3881  0FFC  00F1               	movwf	?___aldiv+1
  3882  0FFD  0822               	movf	___aldiv@quotient,w
  3883  0FFE  00F0               	movwf	?___aldiv
  3884  0FFF                     l235:
  3885  0FFF  0008               	return
  3886  1000                     __end_of___aldiv:
  3887  007E                     btemp	set	126	;btemp
  3888  007E                     wtemp0	set	126
  3889                           
  3890                           	psect	config
  3891                           
  3892                           ;Config register CONFIG @ 0x2007
  3893                           ;	Oscillator Selection bits
  3894                           ;	FOSC = HS, HS oscillator
  3895                           ;	Watchdog Timer Enable bit
  3896                           ;	WDTE = OFF, WDT disabled
  3897                           ;	Power-up Timer Enable bit
  3898                           ;	PWRTE = OFF, PWRT disabled
  3899                           ;	Brown-out Reset Enable bit
  3900                           ;	BOREN = ON, BOR enabled
  3901                           ;	Low-Voltage (Single-Supply) In-Circuit Serial Programming Enable bit
  3902                           ;	LVP = OFF, RB3 is digital I/O, HV on MCLR must be used for programming
  3903                           ;	Data EEPROM Memory Code Protection bit
  3904                           ;	CPD = OFF, Data EEPROM code protection off
  3905                           ;	Flash Program Memory Write Enable bits
  3906                           ;	WRT = OFF, Write protection off; all program memory may be written to by EECON control
  3907                           ;	In-Circuit Debugger Mode bit
  3908                           ;	DEBUG = 0x1, unprogrammed default
  3909                           ;	Flash Program Memory Code Protection bit
  3910                           ;	CP = OFF, Code protection off
  3911  2007                     	org	8199
  3912  2007  3F7A               	dw	16250

Data Sizes:
    Strings     0
    Constant    0
    Data        0
    BSS         0
    Persistent  4
    Stack       0

Auto Spaces:
    Space          Size  Autos    Used
    COMMON           14     13      13
    BANK0            80     79      79
    BANK1            80      6      10
    BANK3            96      0       0
    BANK2            96      0       0

Pointer List with Targets:

    None.

Critical Paths under _main in COMMON

    _main->_PWM1_Init
    _main->_PWM2_Init
    _PWM2_Init->___aldiv
    _PWM2_Duty->___xxtofl
    _PWM1_Init->___aldiv
    _PWM1_Duty->___xxtofl
    ___xxtofl->___aldiv
    ___fltol->___xxtofl
    ___flmul->___xxtofl
    ___fldiv->___xxtofl

Critical Paths under _main in BANK0

    _PWM2_Init->___aldiv
    _PWM2_Duty->___fltol
    _PWM1_Init->___aldiv
    _PWM1_Duty->___fltol
    ___xxtofl->___aldiv
    ___fltol->___flmul
    ___flmul->___fldiv
    ___fldiv->___xxtofl

Critical Paths under _main in BANK1

    _main->_PWM1_Duty
    _main->_PWM2_Duty

Critical Paths under _main in BANK3

    None.

Critical Paths under _main in BANK2

    None.

Call Graph Tables:

 ---------------------------------------------------------------------------------
 (Depth) Function   	        Calls       Base Space   Used Autos Params    Refs
 ---------------------------------------------------------------------------------
 (0) _main                                                 0     0      0   14204
                          _PWM1_Duty
                          _PWM1_Init
                         _PWM1_Start
                          _PWM2_Duty
                          _PWM2_Init
                         _PWM2_Start
 ---------------------------------------------------------------------------------
 (1) _PWM2_Start                                           0     0      0       0
 ---------------------------------------------------------------------------------
 (1) _PWM2_Init                                            8     4      4    1028
                                              9 COMMON     4     4      0
                                              6 BANK0      4     0      4
                            ___aldiv
 ---------------------------------------------------------------------------------
 (1) _PWM2_Duty                                            6     4      2    6074
                                              0 BANK1      6     4      2
                            ___aldiv
                            ___fldiv
                            ___flmul
                            ___fltol
                           ___xxtofl
 ---------------------------------------------------------------------------------
 (1) _PWM1_Start                                           0     0      0       0
 ---------------------------------------------------------------------------------
 (1) _PWM1_Init                                            8     4      4    1028
                                              9 COMMON     4     4      0
                                              6 BANK0      4     0      4
                            ___aldiv
 ---------------------------------------------------------------------------------
 (1) _PWM1_Duty                                            6     4      2    6074
                                              0 BANK1      6     4      2
                            ___aldiv
                            ___fldiv
                            ___flmul
                            ___fltol
                           ___xxtofl
 ---------------------------------------------------------------------------------
 (2) ___xxtofl                                            14    10      4     626
                                              9 COMMON     4     4      0
                                              6 BANK0     10     6      4
                            ___aldiv (ARG)
 ---------------------------------------------------------------------------------
 (2) ___fltol                                             11     7      4     381
                                             68 BANK0     11     7      4
                            ___aldiv (ARG)
                            ___fldiv (ARG)
                            ___flmul (ARG)
                           ___xxtofl (ARG)
 ---------------------------------------------------------------------------------
 (2) ___flmul                                             26    18      8    2569
                                             42 BANK0     26    18      8
                          __Umul8_16
                            ___aldiv (ARG)
                            ___fldiv (ARG)
                           ___xxtofl (ARG)
 ---------------------------------------------------------------------------------
 (3) __Umul8_16                                            9     7      2     799
                                              0 COMMON     9     7      2
 ---------------------------------------------------------------------------------
 (2) ___fldiv                                             26    18      8    1425
                                             16 BANK0     26    18      8
                           ___xxtofl (ARG)
 ---------------------------------------------------------------------------------
 (2) ___aldiv                                             15     7      8     908
                                              0 COMMON     9     1      8
                                              0 BANK0      6     6      0
 ---------------------------------------------------------------------------------
 Estimated maximum stack depth 3
 ---------------------------------------------------------------------------------

 Call Graph Graphs:

 _main (ROOT)
   _PWM1_Duty
     ___aldiv
     ___fldiv
       ___xxtofl (ARG)
         ___aldiv (ARG)
     ___flmul
       __Umul8_16
       ___aldiv (ARG)
       ___fldiv (ARG)
       ___xxtofl (ARG)
     ___fltol
       ___aldiv (ARG)
       ___fldiv (ARG)
       ___flmul (ARG)
       ___xxtofl (ARG)
     ___xxtofl
   _PWM1_Init
     ___aldiv
   _PWM1_Start
   _PWM2_Duty
     ___aldiv
     ___fldiv
     ___flmul
     ___fltol
     ___xxtofl
   _PWM2_Init
     ___aldiv
   _PWM2_Start

 Address spaces:
Name               Size   Autos  Total    Cost      Usage
BITCOMMON            E      0       0       0        0.0%
EEDATA             100      0       0       0        0.0%
NULL                 0      0       0       0        0.0%
CODE                 0      0       0       0        0.0%
COMMON               E      D       D       1       92.9%
BITSFR0              0      0       0       1        0.0%
SFR0                 0      0       0       1        0.0%
BITSFR1              0      0       0       2        0.0%
SFR1                 0      0       0       2        0.0%
STACK                0      0       0       2        0.0%
ABS                  0      0      66       3        0.0%
BITBANK0            50      0       0       4        0.0%
BITSFR3              0      0       0       4        0.0%
SFR3                 0      0       0       4        0.0%
BANK0               50     4F      4F       5       98.8%
BITSFR2              0      0       0       5        0.0%
SFR2                 0      0       0       5        0.0%
BITBANK1            50      0       0       6        0.0%
BANK1               50      6       A       7       12.5%
BITBANK3            60      0       0       8        0.0%
BANK3               60      0       0       9        0.0%
BITBANK2            60      0       0      10        0.0%
BANK2               60      0       0      11        0.0%
DATA                 0      0      66      12        0.0%


Microchip Technology PIC Macro Assembler V2.32 build 20210201212658 
Symbol Table                                                                                   Mon Mar 08 22:15:21 2021

           ___fldiv@aexp 0049             ___fldiv@bexp 0048             ___fldiv@sign 0041  
                     l51 0EC1                       l60 0F62                       l52 0EC1  
                     l71 0E50                       l64 01FD                       l57 0F13  
                     l74 0E5B                       l68 02BD      __Umul8_16@word_mpld 0076  
                    l225 0F77                      l235 0FFF                      l511 049A  
                    l353 006C                      l346 0081                      l531 047E  
                    l356 0081                      l533 048E                      l525 040C  
                    l509 031A                      l606 0107                      l607 0113  
                    l561 07EF                      l570 0E82                      l555 0767  
                    l549 07FB                      l568 0E70                      l593 00A6  
                    l595 013D                      l599 00EB                      _PR2 0092  
           ___flmul@aexp 005C             ___flmul@bexp 005D             ___flmul@sign 0057  
           ___flmul@temp 0062             ___flmul@prod 005E             ___fltol@exp1 006E  
                   l1110 0E46                     l1200 0048                     l1112 0E51  
                   l1130 0E6A                     l1210 0071                     l1202 005A  
                   l1140 0F66                     l1300 03CD                     l1220 02CF  
                   l1132 0E79                     l1124 0E5D                     l1212 0076  
                   l1150 0F92                     l1142 0F6A                     l1310 03E6  
                   l1302 03CF                     l1230 02E3                     l1222 02D0  
                   l1214 02BE                     l1134 0E7E                     l1126 0E5F  
                   l1160 0FB7                     l1152 0F9A                     l1144 0F7B  
                   l1320 0409                     l1304 03D8                     l1312 03EC  
                   l1240 02FC                     l1224 02D5                     l1232 02E5  
                   l1216 02C5                     l1128 0E66                     l1400 0508  
                   l1208 0061                     l1162 0FC9                     l1154 0F9D  
                   l1170 0FE7                     l1146 0F86                     l1138 0F63  
                   l1330 0428                     l1314 03F0                     l1306 03DC  
                   l1250 0310                     l1242 02FD                     l1234 02ED  
                   l1226 02DA                     l1218 02CB                     l1410 058A  
                   l1402 0518                     l1172 0FEC                     l1164 0FD7  
                   l1156 0FAA                     l1148 0F8A                     l1340 0471  
                   l1332 0441                     l1324 0411                     l1316 03F1  
                   l1308 03DD                     l1244 0302                     l1252 0312  
                   l1236 02F2                     l1228 02E2                     l1420 05F8  
                   l1412 05A6                     l1404 0525                     l1180 0013  
                   l1500 008E                     l1174 0FF7                     l1166 0FD8  
                   l1158 0FAE                     l1350 048A                     l1342 0475  
                   l1326 0416                     l1334 0447                     l1318 03F5  
                   l1270 035B                     l1254 0322                     l1262 033B  
                   l1246 0307                     l1238 02F8                     l1430 0688  
                   l1422 0608                     l1414 05C2                     l1406 0542  
                   l1190 003A                     l1510 00BC                     l1502 009E  
                   l1168 0FE1                     l1344 047D                     l1336 0454  
                   l1328 0424                     l1280 037A                     l1272 0363  
                   l1264 0340                     l1256 032E                     l1248 030F  
                   l1440 071C                     l1432 0698                     l1424 0625  
                   l1416 05CB                     l1408 055E                     l1360 04A8  
                   l1192 003C                     l1184 001C                     l1520 00F2  
                   l1512 00C9                     l1504 00AE                     l1346 0484  
                   l1338 0462                     l1290 03AC                     l1282 038C  
                   l1274 036B                     l1258 0332                     l1450 0741  
                   l1442 072A                     l1434 06C5                     l1426 063E  
                   l1418 05DB                     l1370 04BF                     l1362 04AC  
                   l1194 0040                     l1186 0031                     l1178 0006  
                   l1530 012B                     l1522 00FD                     l1514 00D0  
                   l1348 0488                     l1292 03AD                     l1284 0390  
                   l1276 0373                     l1268 0349                     l1460 0764  
                   l1444 0733                     l1452 0747                     l1436 06EB  
                   l1428 065B                     l1380 04D8                     l1372 04C1  
                   l1364 04AD                     l1356 049B                     l1188 0032  
                   l1532 0130                     l1524 0101                     l1516 00D4  
                   l1508 00B7                     l1540 0EC5                     l1294 03BB  
                   l1286 0391                     l1278 0375                     l1470 0783  
                   l1454 074B                     l1446 0737                     l1438 0713  
                   l1390 04ED                     l1382 04D9                     l1374 04C9  
                   l1366 04B2                     l1358 04A2                     l1534 0134  
                   l1526 010B                     l1518 00E2                     l1550 0149  
                   l1542 0EFB                     l1288 039A                     l1296 03BF  
                   l1480 07C9                     l1472 079C                     l1464 076C  
                   l1456 074C                     l1448 0738                     l1392 04F5  
                   l1384 04DE                     l1376 04CE                     l1368 04B7  
                   l1536 0135                     l1528 0115                     l1552 01DE  
                   l1560 0209                     l1544 0F14                     l1298 03C5  
                   l1490 07E8                     l1482 07D3                     l1466 0771  
                   l1474 07A2                     l1458 0750                     l1394 04FA  
                   l1386 04E3                     l1378 04D4                     l1554 01E1  
                   l1562 029E                     l1546 0F4A                     l1570 0EA1  
                   l1492 07F3                     l1484 07D5                     l1476 07AF  
                   l1468 077F                     l1396 04FF                     l1388 04EB  
                   l1556 01ED                     l1548 013E                     l1564 02A1  
                   l1572 0EAC                     l1486 07E3                     l1478 07BA  
                   l1566 02AD                     l1558 01FE                     l1574 0EB7  
                   l1488 07E7                     l1496 0085                     l1576 0EBC  
                   l1568 0E83                     l1498 008A                     u1200 0F7B  
                   u2000 0783                     u1201 0F7A                     u2001 0782  
                   u1210 0F9A                     u2010 0792                     u1211 0F99  
                   u2020 07AF                     u1300 002A                     u2021 07AE  
                   u1230 0FAE                     u2030 07C9                     u1310 0040  
                   u2110 00F1                     u1231 0FAD                     u2031 07C8  
                   u2015 078D                     u1311 003F                     u2111 00F0  
                   u1400 02D5                     u1160 0E6A                     u2040 07E7  
                   u1320 0047                     u2200 0EDE                     u1225 0F9F  
                   u1401 02D4                     u1161 0E69                     u2041 07E6  
                   u2025 07AB                     u1321 0046                     u1305 0025  
                   u2105 00E3                     u1250 0FC9                     u1410 02DA  
                   u2130 0101                     u2050 008A                     u2210 0F24  
                   u1251 0FC8                     u1411 02D9                     u2035 07C5  
                   u2131 0100                     u2051 0089                     u1500 0390  
                   u1420 02FC                     u1180 0E7E                     u1340 0059  
                   u2140 0107                     u2060 008E                     u2220 0F2D  
                   u1245 0FB0                     u1501 038F                     u1421 02FB  
                   u1181 0E7D                     u1341 0058                     u2141 0106  
                   u2125 00F6                     u2061 008D                     u2205 0ED9  
                   u1270 0FE7                     u1190 0F6A                     u1430 0302  
                   u1350 0060                     u2150 010B                     u2070 00AE  
                   u2230 0149                     u1271 0FE6                     u1255 0FC5  
                   u1191 0F69                     u1431 0301                     u1175 0E71  
                   u1351 005F                     u1335 0049                     u2151 010A  
                   u2071 00AD                     u2231 0148                     u2215 0F1F  
                   u1280 0FEC                     u1600 0409                     u1520 03AC  
                   u1440 0307                     u2160 0120                     u2240 0194  
                   u2304 02AD                     u1281 0FEB                     u1265 0FD9  
                   u1601 0408                     u1521 03AB                     u1441 0306  
                   u2225 0F28                     u1610 0410                     u1530 03C5  
                   u1450 0322                     u1370 0071                     u1290 0013  
                   u2170 0130                     u2090 00CF                     u2250 01EA  
                   u1611 040F                     u1531 03C4                     u1515 0393  
                   u1451 0321                     u1371 0070                     u1291 0012  
                   u2171 012F                     u2091 00CE                     u2251 01E6  
                   u1620 0416                     u1540 03CD                     u1460 0340  
                   u1700 04B7                     u1380 0076                     u2180 0134  
                   u1621 0415                     u1541 03CC                     u1525 03A8  
                   u1461 033F                     u1701 04B6                     u1381 0075  
                   u1365 0063                     u2181 0133                     u2165 011B  
                   u2085 00C1                     u2245 018F                     u1630 0428  
                   u1470 037A                     u1390 02CF                     u1710 04D8  
                   u2190 0ED5                     u2270 0209                     u1631 0427  
                   u1471 0379                     u1391 02CE                     u1711 04D7  
                   u2271 0208                     u1640 0437                     u1560 03DC  
                   u1720 04DE                     u2264 01ED                     u2280 0254  
                   u1561 03DB                     u1721 04DD                     u1650 0454  
                   u1730 04E3                     u2290 02AA                     u1651 0453  
                   u1555 03D1                     u1811 05EA                     u1731 04E2  
                   u2195 0ED0                     u2291 02A6                     u1660 0471  
                   u1580 03F0                     u1812 05F1                     u1740 04FA  
                   u1661 0470                     u1645 0432                     u1581 03EF  
                   u1485 037C                     u1901 0705                     u1821 0617  
                   u1813 05F8                     u1805 05C4                     u1741 04F9  
                   u2285 024F                     u1670 0488                     u1590 03F5  
                   u1902 070C                     u1822 061E                     u1750 04FF  
                   u1671 0487                     u1655 0450                     u1591 03F4  
                   u1575 03DF                     u1495 0385                     u1903 0713  
                   u1823 0625                     u1751 04FE                     u1680 04AC  
                   u1665 046D                     u1841 064D                     u1761 0550  
                   u1681 04AB                     u1930 0737                     u1842 0654  
                   u1762 0557                     u1690 04B2                     u1931 0736  
                   u1915 0715                     u1851 067A                     u1843 065B  
                   u1835 0627                     u1771 056C                     u1763 055E  
                   u1691 04B1                     u1852 0681                     u1772 0573  
                   u1925 072C                     u1861 06A7                     u1853 0688  
                   u1781 0598                     u1773 057A                     u1950 074B  
                   u1870 06D1                     u1862 06AE                     u1782 059F  
                   u1951 074A                     u1863 06B5                     u1791 05B4  
                   u1783 05A6                     u1960 0750                     u1792 05BB  
                   u1961 074F                     u1945 073A                     u1881 06DD  
                   u1793 05C2                     u1970 0764                     u1890 06F9  
                   u1882 06E4                     u1971 0763                     u1883 06EB  
                   u1875 06CC                     u1980 076B                     u1981 076A  
                   u1990 0771                     u1991 0770                     u1895 06F4  
                   _main 0E83                     btemp 007E                     start 0000  
        ___fldiv@new_exp 0042            ___fltol@sign1 006D          __end_of___aldiv 1000  
                  ?_main 0070                    _CCP1X 00BD          __end_of___fldiv 049B  
                  _CCP1Y 00BC                    _CCP2X 00ED                    _CCP2Y 00EC  
        __end_of___flmul 07FC          __end_of___fltol 0082       __size_of_PWM1_Init 004F  
     __size_of_PWM1_Duty 00C0              ?_PWM1_Start 0070       __size_of_PWM2_Init 004F  
     __size_of_PWM2_Duty 00C0              ?_PWM2_Start 0070                    status 0003  
                  wtemp0 007E          __initialization 07FC             __end_of_main 0EC5  
  PWM1_Init@u32Frequency 0026                   ??_main 007D                   _CCP1M2 00BA  
                 _CCP1M3 00BB                   _CCP2M2 00EA                   _CCP2M3 00EB  
                 _CCPR1L 0015                   _CCPR2L 001B                   _TMR2ON 0092  
                 _TRISC1 0439                   _TRISC2 043A         __end_of___xxtofl 013E  
      __end_of_PWM1_Init 0F14        __end_of_PWM1_Duty 01FE        __end_of_PWM2_Init 0F63  
      __end_of_PWM2_Duty 02BE                ??___aldiv 0078                ??___fldiv 0038  
    __size_of_PWM1_Start 000B                ??___flmul 0052                ??___fltol 0068  
    __size_of_PWM2_Start 000B       __size_of__Umul8_16 0027             ___xxtofl@arg 002C  
           ___xxtofl@exp 002B             ___xxtofl@val 0026  __end_of__initialization 07FC  
             ___fltol@f1 0064           __pcstackCOMMON 0070        __end_of__Umul8_16 0E83  
             __pmaintext 0E83                  _T2CKPS0 0090                  _T2CKPS1 0091  
              ?___xxtofl 0026             ??_PWM1_Start 0070             ??_PWM2_Start 0070  
                ___aldiv 0F63                  ___fldiv 02BE                  ___flmul 049B  
                ___fltol 0006       __end_of_PWM1_Start 0E51       __end_of_PWM2_Start 0E5C  
                __ptext1 0E51                  __ptext2 0F14                  __ptext3 01FE  
                __ptext4 0E46                  __ptext5 0EC5                  __ptext6 013E  
                __ptext7 0082                  __ptext8 0006                  __ptext9 049B  
             ??___xxtofl 0079         ___aldiv@dividend 0074     end_of_initialization 07FC  
       ___aldiv@quotient 0022                _PWM1_Init 0EC5                _PWM1_Duty 013E  
              _PWM2_Init 0F14                _PWM2_Duty 01FE    PWM2_Init@u32Frequency 0026  
          ___xxtofl@sign 002A              ___fldiv@grs 0044              ___fldiv@rem 003D  
            ___flmul@grs 0058         _u32TempFrequency 00A6               ?_PWM1_Init 0026  
             ?_PWM1_Duty 00A0               ?_PWM2_Init 0026               ?_PWM2_Duty 00A0  
    start_initialization 07FC                __Umul8_16 0E5C                ___fldiv@a 0030  
              ___fldiv@b 0034                ___flmul@a 004E                ___flmul@b 004A  
              ___latbits 0002            __pcstackBANK0 0020            __pcstackBANK1 00A0  
      __size_of___xxtofl 00BC                __pnvBANK1 00A6                 ?___aldiv 0070  
               ?___fldiv 0030                 ?___flmul 004A                 ?___fltol 0064  
             ?__Umul8_16 0070              ??_PWM1_Init 0079              ??_PWM1_Duty 00A2  
            ??_PWM2_Init 0079              ??_PWM2_Duty 00A2          ___aldiv@divisor 0070  
        ___aldiv@counter 0020            PWM1_Duty@duty 00A0            PWM2_Duty@duty 00A0  
            ??__Umul8_16 0072         __size_of___aldiv 009D         __size_of___fldiv 01DD  
       __size_of___flmul 0361         __size_of___fltol 007C                 ___xxtofl 0082  
               __ptext10 0E5C                 __ptext11 02BE                 __ptext12 0F63  
          __size_of_main 0042   __Umul8_16@multiplicand 0070             ___aldiv@sign 0021  
             _PWM1_Start 0E46               _PWM2_Start 0E51     __Umul8_16@multiplier 0078  
      __Umul8_16@product 0074  
